     1                                  [bits 32]
     2                                  ORG 0x280000
     3 00000000 B840010000              mov eax, 320
     4 00000005 50                      push eax
     5 00000006 EB04                    jmp main_z_screenWidth$next
     6 00000008 00000000                main_z_screenWidth: dd 0
     7                                  main_z_screenWidth$next:
     8 0000000C 58                      pop eax
     9 0000000D A3[08000000]            mov [main_z_screenWidth], eax
    10 00000012 B8C8000000              mov eax, 200
    11 00000017 50                      push eax
    12 00000018 EB04                    jmp main_z_screenHeight$next
    13 0000001A 00000000                main_z_screenHeight: dd 0
    14                                  main_z_screenHeight$next:
    15 0000001E 58                      pop eax
    16 0000001F A3[1A000000]            mov [main_z_screenHeight], eax
    17 00000024 B800000A00              mov eax, 0x000a0000
    18 00000029 50                      push eax
    19 0000002A EB04                    jmp main_z_addrVram$next
    20 0000002C 00000000                main_z_addrVram: dd 0
    21                                  main_z_addrVram$next:
    22 00000030 58                      pop eax
    23 00000031 A3[2C000000]            mov [main_z_addrVram], eax
    24 00000036 B800E02400              mov eax, 0x0024e000
    25 0000003B 50                      push eax
    26 0000003C EB04                    jmp main_z_addrPM$next
    27 0000003E 00000000                main_z_addrPM: dd 0
    28                                  main_z_addrPM$next:
    29 00000042 58                      pop eax
    30 00000043 A3[3E000000]            mov [main_z_addrPM], eax
    31 00000048 B800E02600              mov eax, 0x0026e000
    32 0000004D 50                      push eax
    33 0000004E EB04                    jmp main_z_addrPDT$next
    34 00000050 00000000                main_z_addrPDT: dd 0
    35                                  main_z_addrPDT$next:
    36 00000054 58                      pop eax
    37 00000055 A3[50000000]            mov [main_z_addrPDT], eax
    38 0000005A B800F82600              mov eax, 0x0026f800
    39 0000005F 50                      push eax
    40 00000060 EB04                    jmp main_z_addrIDT$next
    41 00000062 00000000                main_z_addrIDT: dd 0
    42                                  main_z_addrIDT$next:
    43 00000066 58                      pop eax
    44 00000067 A3[62000000]            mov [main_z_addrIDT], eax
    45 0000006C B800002700              mov eax, 0x00270000
    46 00000071 50                      push eax
    47 00000072 EB04                    jmp main_z_addrGDT$next
    48 00000074 00000000                main_z_addrGDT: dd 0
    49                                  main_z_addrGDT$next:
    50 00000078 58                      pop eax
    51 00000079 A3[74000000]            mov [main_z_addrGDT], eax
    52                                  
    53                                  ;function
    54 0000007E EB0E                    jmp main_z_run_once$next
    55                                  main_z_run_once:
    56 00000080 5D                      pop ebp
    57 00000081 55                      push ebp
    58 00000082 A1[2C000000]            mov eax, [main_z_addrVram]
    59 00000087 50                      push eax
    60 00000088 E8623B0000              call test_z_draw
    61 0000008D C3                      ret
    62                                  main_z_run_once$next:
    63                                  
    64                                  ;function
    65 0000008E EB08                    jmp main_z_run_loop$next
    66                                  main_z_run_loop:
    67 00000090 5D                      pop ebp
    68 00000091 55                      push ebp
    69 00000092 E8BC3B0000              call kernel_z_halt
    70 00000097 C3                      ret
    71                                  main_z_run_loop$next:
    72                                  
    73                                  ;function
    74 00000098 EB2C                    jmp memory_z_set_1byte$next
    75                                  memory_z_set_1byte:
    76                                  ;param
    77 0000009A EB04                    jmp memory_z_set_1byte_val$next
    78 0000009C 00000000                memory_z_set_1byte_val: dd 0
    79                                  memory_z_set_1byte_val$next:
    80                                  ;param
    81 000000A0 EB04                    jmp memory_z_set_1byte_addr$next
    82 000000A2 00000000                memory_z_set_1byte_addr: dd 0
    83                                  memory_z_set_1byte_addr$next:
    84 000000A6 5D                      pop ebp
    85 000000A7 58                      pop eax
    86 000000A8 A3[A2000000]            mov [memory_z_set_1byte_addr], eax
    87 000000AD 58                      pop eax
    88 000000AE A3[9C000000]            mov [memory_z_set_1byte_val], eax
    89 000000B3 55                      push ebp
    90 000000B4 A1[9C000000]            mov eax, [memory_z_set_1byte_val]
    91 000000B9 50                      push eax
    92 000000BA A1[A2000000]            mov eax, [memory_z_set_1byte_addr]
    93 000000BF 50                      push eax
    94 000000C0 E8783B0000              call kernel_z_setMem_1byte
    95 000000C5 C3                      ret
    96                                  memory_z_set_1byte$next:
    97                                  
    98                                  ;function
    99 000000C6 EB2C                    jmp memory_z_set_2byte$next
   100                                  memory_z_set_2byte:
   101                                  ;param
   102 000000C8 EB04                    jmp memory_z_set_2byte_val$next
   103 000000CA 00000000                memory_z_set_2byte_val: dd 0
   104                                  memory_z_set_2byte_val$next:
   105                                  ;param
   106 000000CE EB04                    jmp memory_z_set_2byte_addr$next
   107 000000D0 00000000                memory_z_set_2byte_addr: dd 0
   108                                  memory_z_set_2byte_addr$next:
   109 000000D4 5D                      pop ebp
   110 000000D5 58                      pop eax
   111 000000D6 A3[D0000000]            mov [memory_z_set_2byte_addr], eax
   112 000000DB 58                      pop eax
   113 000000DC A3[CA000000]            mov [memory_z_set_2byte_val], eax
   114 000000E1 55                      push ebp
   115 000000E2 A1[CA000000]            mov eax, [memory_z_set_2byte_val]
   116 000000E7 50                      push eax
   117 000000E8 A1[D0000000]            mov eax, [memory_z_set_2byte_addr]
   118 000000ED 50                      push eax
   119 000000EE E8513B0000              call kernel_z_setMem_2byte
   120 000000F3 C3                      ret
   121                                  memory_z_set_2byte$next:
   122                                  
   123                                  ;function
   124 000000F4 E983000000              jmp draw_z_pixel$next
   125                                  draw_z_pixel:
   126                                  ;param
   127 000000F9 EB04                    jmp draw_z_pixel_x$next
   128 000000FB 00000000                draw_z_pixel_x: dd 0
   129                                  draw_z_pixel_x$next:
   130                                  ;param
   131 000000FF EB04                    jmp draw_z_pixel_y$next
   132 00000101 00000000                draw_z_pixel_y: dd 0
   133                                  draw_z_pixel_y$next:
   134                                  ;param
   135 00000105 EB04                    jmp draw_z_pixel_color$next
   136 00000107 00000000                draw_z_pixel_color: dd 0
   137                                  draw_z_pixel_color$next:
   138                                  ;param
   139 0000010B EB04                    jmp draw_z_pixel_screenWidth$next
   140 0000010D 00000000                draw_z_pixel_screenWidth: dd 0
   141                                  draw_z_pixel_screenWidth$next:
   142                                  ;param
   143 00000111 EB04                    jmp draw_z_pixel_vramAddr$next
   144 00000113 00000000                draw_z_pixel_vramAddr: dd 0
   145                                  draw_z_pixel_vramAddr$next:
   146 00000117 5D                      pop ebp
   147 00000118 58                      pop eax
   148 00000119 A3[13010000]            mov [draw_z_pixel_vramAddr], eax
   149 0000011E 58                      pop eax
   150 0000011F A3[0D010000]            mov [draw_z_pixel_screenWidth], eax
   151 00000124 58                      pop eax
   152 00000125 A3[07010000]            mov [draw_z_pixel_color], eax
   153 0000012A 58                      pop eax
   154 0000012B A3[01010000]            mov [draw_z_pixel_y], eax
   155 00000130 58                      pop eax
   156 00000131 A3[FB000000]            mov [draw_z_pixel_x], eax
   157 00000136 55                      push ebp
   158 00000137 A1[01010000]            mov eax, [draw_z_pixel_y]
   159 0000013C 50                      push eax
   160 0000013D A1[0D010000]            mov eax, [draw_z_pixel_screenWidth]
   161 00000142 50                      push eax
   162 00000143 58                      pop eax
   163 00000144 5B                      pop ebx
   164 00000145 F7E3                    mul ebx
   165 00000147 50                      push eax
   166 00000148 A1[FB000000]            mov eax, [draw_z_pixel_x]
   167 0000014D 50                      push eax
   168 0000014E 58                      pop eax
   169 0000014F 5B                      pop ebx
   170 00000150 01D8                    add eax, ebx
   171 00000152 50                      push eax
   172 00000153 A1[13010000]            mov eax, [draw_z_pixel_vramAddr]
   173 00000158 50                      push eax
   174 00000159 58                      pop eax
   175 0000015A 5B                      pop ebx
   176 0000015B 01D8                    add eax, ebx
   177 0000015D 50                      push eax
   178 0000015E EB04                    jmp draw_z_pixel_addr$next
   179 00000160 00000000                draw_z_pixel_addr: dd 0
   180                                  draw_z_pixel_addr$next:
   181 00000164 58                      pop eax
   182 00000165 A3[60010000]            mov [draw_z_pixel_addr], eax
   183 0000016A A1[07010000]            mov eax, [draw_z_pixel_color]
   184 0000016F 50                      push eax
   185 00000170 A1[60010000]            mov eax, [draw_z_pixel_addr]
   186 00000175 50                      push eax
   187 00000176 E81FFFFFFF              call memory_z_set_1byte
   188 0000017B C3                      ret
   189                                  draw_z_pixel$next:
   190                                  
   191                                  ;function
   192 0000017C E9CA000000              jmp draw_z_hLine$next
   193                                  draw_z_hLine:
   194                                  ;param
   195 00000181 EB04                    jmp draw_z_hLine_bx$next
   196 00000183 00000000                draw_z_hLine_bx: dd 0
   197                                  draw_z_hLine_bx$next:
   198                                  ;param
   199 00000187 EB04                    jmp draw_z_hLine_by$next
   200 00000189 00000000                draw_z_hLine_by: dd 0
   201                                  draw_z_hLine_by$next:
   202                                  ;param
   203 0000018D EB04                    jmp draw_z_hLine_ex$next
   204 0000018F 00000000                draw_z_hLine_ex: dd 0
   205                                  draw_z_hLine_ex$next:
   206                                  ;param
   207 00000193 EB04                    jmp draw_z_hLine_ey$next
   208 00000195 00000000                draw_z_hLine_ey: dd 0
   209                                  draw_z_hLine_ey$next:
   210                                  ;param
   211 00000199 EB04                    jmp draw_z_hLine_color$next
   212 0000019B 00000000                draw_z_hLine_color: dd 0
   213                                  draw_z_hLine_color$next:
   214                                  ;param
   215 0000019F EB04                    jmp draw_z_hLine_screenWidth$next
   216 000001A1 00000000                draw_z_hLine_screenWidth: dd 0
   217                                  draw_z_hLine_screenWidth$next:
   218                                  ;param
   219 000001A5 EB04                    jmp draw_z_hLine_vramAddr$next
   220 000001A7 00000000                draw_z_hLine_vramAddr: dd 0
   221                                  draw_z_hLine_vramAddr$next:
   222 000001AB 5D                      pop ebp
   223 000001AC 58                      pop eax
   224 000001AD A3[A7010000]            mov [draw_z_hLine_vramAddr], eax
   225 000001B2 58                      pop eax
   226 000001B3 A3[A1010000]            mov [draw_z_hLine_screenWidth], eax
   227 000001B8 58                      pop eax
   228 000001B9 A3[9B010000]            mov [draw_z_hLine_color], eax
   229 000001BE 58                      pop eax
   230 000001BF A3[95010000]            mov [draw_z_hLine_ey], eax
   231 000001C4 58                      pop eax
   232 000001C5 A3[8F010000]            mov [draw_z_hLine_ex], eax
   233 000001CA 58                      pop eax
   234 000001CB A3[89010000]            mov [draw_z_hLine_by], eax
   235 000001D0 58                      pop eax
   236 000001D1 A3[83010000]            mov [draw_z_hLine_bx], eax
   237 000001D6 55                      push ebp
   238 000001D7 A1[83010000]            mov eax, [draw_z_hLine_bx]
   239 000001DC 50                      push eax
   240 000001DD EB04                    jmp draw_z_hLine_i$next
   241 000001DF 00000000                draw_z_hLine_i: dd 0
   242                                  draw_z_hLine_i$next:
   243 000001E3 58                      pop eax
   244 000001E4 A3[DF010000]            mov [draw_z_hLine_i], eax
   245                                  ; while start
   246                                  draw_z_hLine_while$1_start:
   247 000001E9 A1[DF010000]            mov eax, [draw_z_hLine_i]
   248 000001EE 50                      push eax
   249 000001EF A1[8F010000]            mov eax, [draw_z_hLine_ex]
   250 000001F4 50                      push eax
   251 000001F5 5B                      pop ebx
   252 000001F6 58                      pop eax
   253 000001F7 39D8                    cmp eax, ebx
   254 000001F9 7607                    jbe draw_z_hLine_while$1_lessequal@true$1
   255 000001FB B800000000              mov eax, 0
   256 00000200 EB05                    jmp draw_z_hLine_while$1_lessequal@false$1
   257                                  draw_z_hLine_while$1_lessequal@true$1:
   258 00000202 B801000000              mov eax, 1
   259                                  draw_z_hLine_while$1_lessequal@false$1:
   260 00000207 50                      push eax
   261 00000208 58                      pop eax
   262 00000209 83F800                  cmp eax, 0
   263 0000020C 743C                    je draw_z_hLine_while$1_end
   264 0000020E A1[DF010000]            mov eax, [draw_z_hLine_i]
   265 00000213 50                      push eax
   266 00000214 A1[89010000]            mov eax, [draw_z_hLine_by]
   267 00000219 50                      push eax
   268 0000021A A1[9B010000]            mov eax, [draw_z_hLine_color]
   269 0000021F 50                      push eax
   270 00000220 A1[A1010000]            mov eax, [draw_z_hLine_screenWidth]
   271 00000225 50                      push eax
   272 00000226 A1[A7010000]            mov eax, [draw_z_hLine_vramAddr]
   273 0000022B 50                      push eax
   274 0000022C E8C8FEFFFF              call draw_z_pixel
   275 00000231 A1[DF010000]            mov eax, [draw_z_hLine_i]
   276 00000236 50                      push eax
   277 00000237 B801000000              mov eax, 1
   278 0000023C 50                      push eax
   279 0000023D 58                      pop eax
   280 0000023E 5B                      pop ebx
   281 0000023F 01D8                    add eax, ebx
   282 00000241 50                      push eax
   283 00000242 58                      pop eax
   284 00000243 A3[DF010000]            mov [draw_z_hLine_i], eax
   285 00000248 EB9F                    jmp draw_z_hLine_while$1_start
   286                                  draw_z_hLine_while$1_end:
   287                                  ;while end
   288 0000024A C3                      ret
   289                                  draw_z_hLine$next:
   290                                  
   291                                  ;function
   292 0000024B EB3F                    jmp draw_z_font$next
   293                                  draw_z_font:
   294                                  ;param
   295 0000024D EB04                    jmp draw_z_font_charAddr$next
   296 0000024F 00000000                draw_z_font_charAddr: dd 0
   297                                  draw_z_font_charAddr$next:
   298                                  ;param
   299 00000253 EB04                    jmp draw_z_font_left$next
   300 00000255 00000000                draw_z_font_left: dd 0
   301                                  draw_z_font_left$next:
   302                                  ;param
   303 00000259 EB04                    jmp draw_z_font_top$next
   304 0000025B 00000000                draw_z_font_top: dd 0
   305                                  draw_z_font_top$next:
   306                                  ;param
   307 0000025F EB04                    jmp draw_z_font_foreColor$next
   308 00000261 00000000                draw_z_font_foreColor: dd 0
   309                                  draw_z_font_foreColor$next:
   310                                  ;param
   311 00000265 EB04                    jmp draw_z_font_backColor$next
   312 00000267 00000000                draw_z_font_backColor: dd 0
   313                                  draw_z_font_backColor$next:
   314 0000026B 5D                      pop ebp
   315 0000026C 58                      pop eax
   316 0000026D A3[67020000]            mov [draw_z_font_backColor], eax
   317 00000272 58                      pop eax
   318 00000273 A3[61020000]            mov [draw_z_font_foreColor], eax
   319 00000278 58                      pop eax
   320 00000279 A3[5B020000]            mov [draw_z_font_top], eax
   321 0000027E 58                      pop eax
   322 0000027F A3[55020000]            mov [draw_z_font_left], eax
   323 00000284 58                      pop eax
   324 00000285 A3[4F020000]            mov [draw_z_font_charAddr], eax
   325 0000028A 55                      push ebp
   326 0000028B C3                      ret
   327                                  draw_z_font$next:
   328                                  
   329                                  ;function
   330 0000028C E910010000              jmp draw_z_flush$next
   331                                  draw_z_flush:
   332                                  ;param
   333 00000291 EB04                    jmp draw_z_flush_addrVram$next
   334 00000293 00000000                draw_z_flush_addrVram: dd 0
   335                                  draw_z_flush_addrVram$next:
   336 00000297 5D                      pop ebp
   337 00000298 58                      pop eax
   338 00000299 A3[93020000]            mov [draw_z_flush_addrVram], eax
   339 0000029E 55                      push ebp
   340 0000029F B800000000              mov eax, 0
   341 000002A4 50                      push eax
   342 000002A5 EB04                    jmp draw_z_flush_left$next
   343 000002A7 00000000                draw_z_flush_left: dd 0
   344                                  draw_z_flush_left$next:
   345 000002AB 58                      pop eax
   346 000002AC A3[A7020000]            mov [draw_z_flush_left], eax
   347 000002B1 B800000000              mov eax, 0
   348 000002B6 50                      push eax
   349 000002B7 EB04                    jmp draw_z_flush_top$next
   350 000002B9 00000000                draw_z_flush_top: dd 0
   351                                  draw_z_flush_top$next:
   352 000002BD 58                      pop eax
   353 000002BE A3[B9020000]            mov [draw_z_flush_top], eax
   354                                  ; while start
   355                                  draw_z_flush_while$1_start:
   356 000002C3 A1[B9020000]            mov eax, [draw_z_flush_top]
   357 000002C8 50                      push eax
   358 000002C9 B819000000              mov eax, 25
   359 000002CE 50                      push eax
   360 000002CF 5B                      pop ebx
   361 000002D0 58                      pop eax
   362 000002D1 39D8                    cmp eax, ebx
   363 000002D3 7207                    jb draw_z_flush_while$1_less@true$2
   364 000002D5 B800000000              mov eax, 0
   365 000002DA EB05                    jmp draw_z_flush_while$1_less@false$2
   366                                  draw_z_flush_while$1_less@true$2:
   367 000002DC B801000000              mov eax, 1
   368                                  draw_z_flush_while$1_less@false$2:
   369 000002E1 50                      push eax
   370 000002E2 58                      pop eax
   371 000002E3 83F800                  cmp eax, 0
   372 000002E6 0F84B4000000            je draw_z_flush_while$1_end
   373 000002EC B800000000              mov eax, 0
   374 000002F1 50                      push eax
   375 000002F2 58                      pop eax
   376 000002F3 A3[A7020000]            mov [draw_z_flush_left], eax
   377                                  ; while start
   378                                  draw_z_flush_while$1_while$1_start:
   379 000002F8 A1[A7020000]            mov eax, [draw_z_flush_left]
   380 000002FD 50                      push eax
   381 000002FE B828000000              mov eax, 40
   382 00000303 50                      push eax
   383 00000304 5B                      pop ebx
   384 00000305 58                      pop eax
   385 00000306 39D8                    cmp eax, ebx
   386 00000308 7207                    jb draw_z_flush_while$1_while$1_less@true$3
   387 0000030A B800000000              mov eax, 0
   388 0000030F EB05                    jmp draw_z_flush_while$1_while$1_less@false$3
   389                                  draw_z_flush_while$1_while$1_less@true$3:
   390 00000311 B801000000              mov eax, 1
   391                                  draw_z_flush_while$1_while$1_less@false$3:
   392 00000316 50                      push eax
   393 00000317 58                      pop eax
   394 00000318 83F800                  cmp eax, 0
   395 0000031B 7467                    je draw_z_flush_while$1_while$1_end
   396 0000031D B80F000000              mov eax, 15
   397 00000322 50                      push eax
   398 00000323 EB04                    jmp draw_z_flush_while$1_while$1_color$next
   399 00000325 00000000                draw_z_flush_while$1_while$1_color: dd 0
   400                                  draw_z_flush_while$1_while$1_color$next:
   401 00000329 58                      pop eax
   402 0000032A A3[25030000]            mov [draw_z_flush_while$1_while$1_color], eax
   403 0000032F A1[A7020000]            mov eax, [draw_z_flush_left]
   404 00000334 50                      push eax
   405 00000335 B808000000              mov eax, 8
   406 0000033A 50                      push eax
   407 0000033B 58                      pop eax
   408 0000033C 5B                      pop ebx
   409 0000033D F7E3                    mul ebx
   410 0000033F 50                      push eax
   411 00000340 A1[B9020000]            mov eax, [draw_z_flush_top]
   412 00000345 50                      push eax
   413 00000346 B808000000              mov eax, 8
   414 0000034B 50                      push eax
   415 0000034C 58                      pop eax
   416 0000034D 5B                      pop ebx
   417 0000034E F7E3                    mul ebx
   418 00000350 50                      push eax
   419 00000351 A1[25030000]            mov eax, [draw_z_flush_while$1_while$1_color]
   420 00000356 50                      push eax
   421 00000357 B840010000              mov eax, 320
   422 0000035C 50                      push eax
   423 0000035D A1[93020000]            mov eax, [draw_z_flush_addrVram]
   424 00000362 50                      push eax
   425 00000363 E891FDFFFF              call draw_z_pixel
   426 00000368 A1[A7020000]            mov eax, [draw_z_flush_left]
   427 0000036D 50                      push eax
   428 0000036E B801000000              mov eax, 1
   429 00000373 50                      push eax
   430 00000374 58                      pop eax
   431 00000375 5B                      pop ebx
   432 00000376 01D8                    add eax, ebx
   433 00000378 50                      push eax
   434 00000379 58                      pop eax
   435 0000037A A3[A7020000]            mov [draw_z_flush_left], eax
   436 0000037F E974FFFFFF              jmp draw_z_flush_while$1_while$1_start
   437                                  draw_z_flush_while$1_while$1_end:
   438                                  ;while end
   439 00000384 A1[B9020000]            mov eax, [draw_z_flush_top]
   440 00000389 50                      push eax
   441 0000038A B801000000              mov eax, 1
   442 0000038F 50                      push eax
   443 00000390 58                      pop eax
   444 00000391 5B                      pop ebx
   445 00000392 01D8                    add eax, ebx
   446 00000394 50                      push eax
   447 00000395 58                      pop eax
   448 00000396 A3[B9020000]            mov [draw_z_flush_top], eax
   449 0000039B E923FFFFFF              jmp draw_z_flush_while$1_start
   450                                  draw_z_flush_while$1_end:
   451                                  ;while end
   452 000003A0 C3                      ret
   453                                  draw_z_flush$next:
   454                                  
   455                                  ;function
   456 000003A1 E906020000              jmp draw_z_char$next
   457                                  draw_z_char:
   458                                  ;param
   459 000003A6 EB04                    jmp draw_z_char_left$next
   460 000003A8 00000000                draw_z_char_left: dd 0
   461                                  draw_z_char_left$next:
   462                                  ;param
   463 000003AC EB04                    jmp draw_z_char_top$next
   464 000003AE 00000000                draw_z_char_top: dd 0
   465                                  draw_z_char_top$next:
   466                                  ;param
   467 000003B2 EB04                    jmp draw_z_char_foreColor$next
   468 000003B4 00000000                draw_z_char_foreColor: dd 0
   469                                  draw_z_char_foreColor$next:
   470                                  ;param
   471 000003B8 EB04                    jmp draw_z_char_backColor$next
   472 000003BA 00000000                draw_z_char_backColor: dd 0
   473                                  draw_z_char_backColor$next:
   474                                  ;param
   475 000003BE EB04                    jmp draw_z_char_ascii$next
   476 000003C0 00000000                draw_z_char_ascii: dd 0
   477                                  draw_z_char_ascii$next:
   478                                  ;param
   479 000003C4 EB04                    jmp draw_z_char_screenWidth$next
   480 000003C6 00000000                draw_z_char_screenWidth: dd 0
   481                                  draw_z_char_screenWidth$next:
   482                                  ;param
   483 000003CA EB04                    jmp draw_z_char_addrVram$next
   484 000003CC 00000000                draw_z_char_addrVram: dd 0
   485                                  draw_z_char_addrVram$next:
   486 000003D0 5D                      pop ebp
   487 000003D1 58                      pop eax
   488 000003D2 A3[CC030000]            mov [draw_z_char_addrVram], eax
   489 000003D7 58                      pop eax
   490 000003D8 A3[C6030000]            mov [draw_z_char_screenWidth], eax
   491 000003DD 58                      pop eax
   492 000003DE A3[C0030000]            mov [draw_z_char_ascii], eax
   493 000003E3 58                      pop eax
   494 000003E4 A3[BA030000]            mov [draw_z_char_backColor], eax
   495 000003E9 58                      pop eax
   496 000003EA A3[B4030000]            mov [draw_z_char_foreColor], eax
   497 000003EF 58                      pop eax
   498 000003F0 A3[AE030000]            mov [draw_z_char_top], eax
   499 000003F5 58                      pop eax
   500 000003F6 A3[A8030000]            mov [draw_z_char_left], eax
   501 000003FB 55                      push ebp
   502 000003FC A1[C0030000]            mov eax, [draw_z_char_ascii]
   503 00000401 50                      push eax
   504 00000402 E8E9300000              call font_z_getAddrByAscii
   505 00000407 EB04                    jmp draw_z_char_fontAddr$next
   506 00000409 00000000                draw_z_char_fontAddr: dd 0
   507                                  draw_z_char_fontAddr$next:
   508 0000040D 58                      pop eax
   509 0000040E A3[09040000]            mov [draw_z_char_fontAddr], eax
   510 00000413 B800000000              mov eax, 0
   511 00000418 50                      push eax
   512 00000419 EB04                    jmp draw_z_char_x$next
   513 0000041B 00000000                draw_z_char_x: dd 0
   514                                  draw_z_char_x$next:
   515 0000041F 58                      pop eax
   516 00000420 A3[1B040000]            mov [draw_z_char_x], eax
   517 00000425 B800000000              mov eax, 0
   518 0000042A 50                      push eax
   519 0000042B EB04                    jmp draw_z_char_y$next
   520 0000042D 00000000                draw_z_char_y: dd 0
   521                                  draw_z_char_y$next:
   522 00000431 58                      pop eax
   523 00000432 A3[2D040000]            mov [draw_z_char_y], eax
   524                                  ; while start
   525                                  draw_z_char_while$1_start:
   526 00000437 A1[2D040000]            mov eax, [draw_z_char_y]
   527 0000043C 50                      push eax
   528 0000043D B808000000              mov eax, 8
   529 00000442 50                      push eax
   530 00000443 5B                      pop ebx
   531 00000444 58                      pop eax
   532 00000445 39D8                    cmp eax, ebx
   533 00000447 7207                    jb draw_z_char_while$1_less@true$4
   534 00000449 B800000000              mov eax, 0
   535 0000044E EB05                    jmp draw_z_char_while$1_less@false$4
   536                                  draw_z_char_while$1_less@true$4:
   537 00000450 B801000000              mov eax, 1
   538                                  draw_z_char_while$1_less@false$4:
   539 00000455 50                      push eax
   540 00000456 58                      pop eax
   541 00000457 83F800                  cmp eax, 0
   542 0000045A 0F844B010000            je draw_z_char_while$1_end
   543 00000460 B800000000              mov eax, 0
   544 00000465 50                      push eax
   545 00000466 58                      pop eax
   546 00000467 A3[1B040000]            mov [draw_z_char_x], eax
   547                                  ; while start
   548                                  draw_z_char_while$1_while$1_start:
   549 0000046C A1[1B040000]            mov eax, [draw_z_char_x]
   550 00000471 50                      push eax
   551 00000472 B808000000              mov eax, 8
   552 00000477 50                      push eax
   553 00000478 5B                      pop ebx
   554 00000479 58                      pop eax
   555 0000047A 39D8                    cmp eax, ebx
   556 0000047C 7207                    jb draw_z_char_while$1_while$1_less@true$5
   557 0000047E B800000000              mov eax, 0
   558 00000483 EB05                    jmp draw_z_char_while$1_while$1_less@false$5
   559                                  draw_z_char_while$1_while$1_less@true$5:
   560 00000485 B801000000              mov eax, 1
   561                                  draw_z_char_while$1_while$1_less@false$5:
   562 0000048A 50                      push eax
   563 0000048B 58                      pop eax
   564 0000048C 83F800                  cmp eax, 0
   565 0000048F 0F84FA000000            je draw_z_char_while$1_while$1_end
   566 00000495 A1[2D040000]            mov eax, [draw_z_char_y]
   567 0000049A 50                      push eax
   568 0000049B B808000000              mov eax, 8
   569 000004A0 50                      push eax
   570 000004A1 58                      pop eax
   571 000004A2 5B                      pop ebx
   572 000004A3 F7E3                    mul ebx
   573 000004A5 50                      push eax
   574 000004A6 A1[1B040000]            mov eax, [draw_z_char_x]
   575 000004AB 50                      push eax
   576 000004AC 58                      pop eax
   577 000004AD 5B                      pop ebx
   578 000004AE 01D8                    add eax, ebx
   579 000004B0 50                      push eax
   580 000004B1 BB04000000              mov ebx, 4
   581 000004B6 58                      pop eax
   582 000004B7 F7E3                    mul ebx
   583 000004B9 89C3                    mov ebx, eax
   584 000004BB A1[09040000]            mov eax, [draw_z_char_fontAddr]
   585 000004C0 01D8                    add eax, ebx
   586 000004C2 8B18                    mov ebx, [eax]
   587 000004C4 53                      push ebx
   588 000004C5 EB04                    jmp draw_z_char_while$1_while$1_color$next
   589 000004C7 00000000                draw_z_char_while$1_while$1_color: dd 0
   590                                  draw_z_char_while$1_while$1_color$next:
   591 000004CB 58                      pop eax
   592 000004CC A3[C7040000]            mov [draw_z_char_while$1_while$1_color], eax
   593                                  ; if start
   594                                  draw_z_char_while$1_while$1_if$1_start:
   595 000004D1 A1[2D040000]            mov eax, [draw_z_char_y]
   596 000004D6 50                      push eax
   597 000004D7 B808000000              mov eax, 8
   598 000004DC 50                      push eax
   599 000004DD 58                      pop eax
   600 000004DE 5B                      pop ebx
   601 000004DF F7E3                    mul ebx
   602 000004E1 50                      push eax
   603 000004E2 A1[1B040000]            mov eax, [draw_z_char_x]
   604 000004E7 50                      push eax
   605 000004E8 58                      pop eax
   606 000004E9 5B                      pop ebx
   607 000004EA 01D8                    add eax, ebx
   608 000004EC 50                      push eax
   609 000004ED BB04000000              mov ebx, 4
   610 000004F2 58                      pop eax
   611 000004F3 F7E3                    mul ebx
   612 000004F5 89C3                    mov ebx, eax
   613 000004F7 A1[09040000]            mov eax, [draw_z_char_fontAddr]
   614 000004FC 01D8                    add eax, ebx
   615 000004FE 8B18                    mov ebx, [eax]
   616 00000500 53                      push ebx
   617 00000501 B800000000              mov eax, 0
   618 00000506 50                      push eax
   619 00000507 5B                      pop ebx
   620 00000508 58                      pop eax
   621 00000509 39D8                    cmp eax, ebx
   622 0000050B 7507                    jne draw_z_char_while$1_while$1_if$1_unequal@true$6
   623 0000050D B800000000              mov eax, 0
   624 00000512 EB05                    jmp draw_z_char_while$1_while$1_if$1_unequal@false$6
   625                                  draw_z_char_while$1_while$1_if$1_unequal@true$6:
   626 00000514 B801000000              mov eax, 1
   627                                  draw_z_char_while$1_while$1_if$1_unequal@false$6:
   628 00000519 50                      push eax
   629 0000051A 58                      pop eax
   630 0000051B 83F800                  cmp eax, 0
   631 0000051E 740E                    je draw_z_char_while$1_while$1_if$1_else
   632                                  draw_z_char_while$1_while$1_if$1_then:
   633 00000520 B80F000000              mov eax, 15
   634 00000525 50                      push eax
   635 00000526 58                      pop eax
   636 00000527 A3[C7040000]            mov [draw_z_char_while$1_while$1_color], eax
   637 0000052C EB0C                    jmp draw_z_char_while$1_while$1_if$1_end
   638                                  draw_z_char_while$1_while$1_if$1_else:
   639 0000052E B800000000              mov eax, 0
   640 00000533 50                      push eax
   641 00000534 58                      pop eax
   642 00000535 A3[C7040000]            mov [draw_z_char_while$1_while$1_color], eax
   643                                  draw_z_char_while$1_while$1_if$1_end:
   644                                  ;if end
   645 0000053A A1[A8030000]            mov eax, [draw_z_char_left]
   646 0000053F 50                      push eax
   647 00000540 A1[1B040000]            mov eax, [draw_z_char_x]
   648 00000545 50                      push eax
   649 00000546 58                      pop eax
   650 00000547 5B                      pop ebx
   651 00000548 01D8                    add eax, ebx
   652 0000054A 50                      push eax
   653 0000054B A1[AE030000]            mov eax, [draw_z_char_top]
   654 00000550 50                      push eax
   655 00000551 A1[2D040000]            mov eax, [draw_z_char_y]
   656 00000556 50                      push eax
   657 00000557 58                      pop eax
   658 00000558 5B                      pop ebx
   659 00000559 01D8                    add eax, ebx
   660 0000055B 50                      push eax
   661 0000055C A1[C7040000]            mov eax, [draw_z_char_while$1_while$1_color]
   662 00000561 50                      push eax
   663 00000562 B840010000              mov eax, 320
   664 00000567 50                      push eax
   665 00000568 A1[CC030000]            mov eax, [draw_z_char_addrVram]
   666 0000056D 50                      push eax
   667 0000056E E886FBFFFF              call draw_z_pixel
   668 00000573 A1[1B040000]            mov eax, [draw_z_char_x]
   669 00000578 50                      push eax
   670 00000579 B801000000              mov eax, 1
   671 0000057E 50                      push eax
   672 0000057F 58                      pop eax
   673 00000580 5B                      pop ebx
   674 00000581 01D8                    add eax, ebx
   675 00000583 50                      push eax
   676 00000584 58                      pop eax
   677 00000585 A3[1B040000]            mov [draw_z_char_x], eax
   678 0000058A E9DDFEFFFF              jmp draw_z_char_while$1_while$1_start
   679                                  draw_z_char_while$1_while$1_end:
   680                                  ;while end
   681 0000058F A1[2D040000]            mov eax, [draw_z_char_y]
   682 00000594 50                      push eax
   683 00000595 B801000000              mov eax, 1
   684 0000059A 50                      push eax
   685 0000059B 58                      pop eax
   686 0000059C 5B                      pop ebx
   687 0000059D 01D8                    add eax, ebx
   688 0000059F 50                      push eax
   689 000005A0 58                      pop eax
   690 000005A1 A3[2D040000]            mov [draw_z_char_y], eax
   691 000005A6 E98CFEFFFF              jmp draw_z_char_while$1_start
   692                                  draw_z_char_while$1_end:
   693                                  ;while end
   694 000005AB C3                      ret
   695                                  draw_z_char$next:
   696                                  
   697                                  ;function
   698 000005AC E9FF000000              jmp draw_z_string$next
   699                                  draw_z_string:
   700                                  ;param
   701 000005B1 EB04                    jmp draw_z_string_left$next
   702 000005B3 00000000                draw_z_string_left: dd 0
   703                                  draw_z_string_left$next:
   704                                  ;param
   705 000005B7 EB04                    jmp draw_z_string_top$next
   706 000005B9 00000000                draw_z_string_top: dd 0
   707                                  draw_z_string_top$next:
   708                                  ;param
   709 000005BD EB04                    jmp draw_z_string_strAddr$next
   710 000005BF 00000000                draw_z_string_strAddr: dd 0
   711                                  draw_z_string_strAddr$next:
   712                                  ;param
   713 000005C3 EB04                    jmp draw_z_string_screenWidth$next
   714 000005C5 00000000                draw_z_string_screenWidth: dd 0
   715                                  draw_z_string_screenWidth$next:
   716                                  ;param
   717 000005C9 EB04                    jmp draw_z_string_addrVram$next
   718 000005CB 00000000                draw_z_string_addrVram: dd 0
   719                                  draw_z_string_addrVram$next:
   720 000005CF 5D                      pop ebp
   721 000005D0 58                      pop eax
   722 000005D1 A3[CB050000]            mov [draw_z_string_addrVram], eax
   723 000005D6 58                      pop eax
   724 000005D7 A3[C5050000]            mov [draw_z_string_screenWidth], eax
   725 000005DC 58                      pop eax
   726 000005DD A3[BF050000]            mov [draw_z_string_strAddr], eax
   727 000005E2 58                      pop eax
   728 000005E3 A3[B9050000]            mov [draw_z_string_top], eax
   729 000005E8 58                      pop eax
   730 000005E9 A3[B3050000]            mov [draw_z_string_left], eax
   731 000005EE 55                      push ebp
   732 000005EF B800000000              mov eax, 0
   733 000005F4 50                      push eax
   734 000005F5 EB04                    jmp draw_z_string_i$next
   735 000005F7 00000000                draw_z_string_i: dd 0
   736                                  draw_z_string_i$next:
   737 000005FB 58                      pop eax
   738 000005FC A3[F7050000]            mov [draw_z_string_i], eax
   739                                  ; while start
   740                                  draw_z_string_while$1_start:
   741 00000601 A1[F7050000]            mov eax, [draw_z_string_i]
   742 00000606 50                      push eax
   743 00000607 BB04000000              mov ebx, 4
   744 0000060C 58                      pop eax
   745 0000060D F7E3                    mul ebx
   746 0000060F 89C3                    mov ebx, eax
   747 00000611 A1[BF050000]            mov eax, [draw_z_string_strAddr]
   748 00000616 01D8                    add eax, ebx
   749 00000618 8B18                    mov ebx, [eax]
   750 0000061A 53                      push ebx
   751 0000061B B800000000              mov eax, 0
   752 00000620 50                      push eax
   753 00000621 5B                      pop ebx
   754 00000622 58                      pop eax
   755 00000623 39D8                    cmp eax, ebx
   756 00000625 7507                    jne draw_z_string_while$1_unequal@true$7
   757 00000627 B800000000              mov eax, 0
   758 0000062C EB05                    jmp draw_z_string_while$1_unequal@false$7
   759                                  draw_z_string_while$1_unequal@true$7:
   760 0000062E B801000000              mov eax, 1
   761                                  draw_z_string_while$1_unequal@false$7:
   762 00000633 50                      push eax
   763 00000634 58                      pop eax
   764 00000635 83F800                  cmp eax, 0
   765 00000638 7475                    je draw_z_string_while$1_end
   766 0000063A A1[B3050000]            mov eax, [draw_z_string_left]
   767 0000063F 50                      push eax
   768 00000640 A1[F7050000]            mov eax, [draw_z_string_i]
   769 00000645 50                      push eax
   770 00000646 B808000000              mov eax, 8
   771 0000064B 50                      push eax
   772 0000064C 58                      pop eax
   773 0000064D 5B                      pop ebx
   774 0000064E F7E3                    mul ebx
   775 00000650 50                      push eax
   776 00000651 58                      pop eax
   777 00000652 5B                      pop ebx
   778 00000653 01D8                    add eax, ebx
   779 00000655 50                      push eax
   780 00000656 A1[B9050000]            mov eax, [draw_z_string_top]
   781 0000065B 50                      push eax
   782 0000065C B801000000              mov eax, 1
   783 00000661 50                      push eax
   784 00000662 B802000000              mov eax, 2
   785 00000667 50                      push eax
   786 00000668 A1[F7050000]            mov eax, [draw_z_string_i]
   787 0000066D 50                      push eax
   788 0000066E BB04000000              mov ebx, 4
   789 00000673 58                      pop eax
   790 00000674 F7E3                    mul ebx
   791 00000676 89C3                    mov ebx, eax
   792 00000678 A1[BF050000]            mov eax, [draw_z_string_strAddr]
   793 0000067D 01D8                    add eax, ebx
   794 0000067F 8B18                    mov ebx, [eax]
   795 00000681 53                      push ebx
   796 00000682 A1[C5050000]            mov eax, [draw_z_string_screenWidth]
   797 00000687 50                      push eax
   798 00000688 A1[CB050000]            mov eax, [draw_z_string_addrVram]
   799 0000068D 50                      push eax
   800 0000068E E813FDFFFF              call draw_z_char
   801 00000693 A1[F7050000]            mov eax, [draw_z_string_i]
   802 00000698 50                      push eax
   803 00000699 B801000000              mov eax, 1
   804 0000069E 50                      push eax
   805 0000069F 58                      pop eax
   806 000006A0 5B                      pop ebx
   807 000006A1 01D8                    add eax, ebx
   808 000006A3 50                      push eax
   809 000006A4 58                      pop eax
   810 000006A5 A3[F7050000]            mov [draw_z_string_i], eax
   811 000006AA E952FFFFFF              jmp draw_z_string_while$1_start
   812                                  draw_z_string_while$1_end:
   813                                  ;while end
   814 000006AF C3                      ret
   815                                  draw_z_string$next:
   816 000006B0 E900010000              jmp font_z_A$next
   817 000006B5 000000000000000000-     font_z_A: dd 0,0,0,0,0,0,0,0,0,0,0,1,1,0,0,0,0,0,1,0,0,1,0,0,0,1,0,0,0,0,1,0,0,1,1,1,1,1,1,0,0,1,0,0,0,0,1,0,0,1,0,0,0,0,1,0,0,0,0,0,0,0,0,0,
   817 000006BE 000000000000000000-
   817 000006C7 000000000000000000-
   817 000006D0 000000000000000000-
   817 000006D9 000000000000000001-
   817 000006E2 000000010000000000-
   817 000006EB 000000000000000000-
   817 000006F4 000000000000000000-
   817 000006FD 010000000000000000-
   817 00000706 000000010000000000-
   817 0000070F 000000000000000000-
   817 00000718 000100000000000000-
   817 00000721 000000000000000000-
   817 0000072A 000000010000000000-
   817 00000733 000000000000010000-
   817 0000073C 000100000001000000-
   817 00000745 010000000100000001-
   817 0000074E 000000000000000000-
   817 00000757 000001000000000000-
   817 00000760 000000000000000000-
   817 00000769 000000000100000000-
   817 00000772 000000000000000100-
   817 0000077B 000000000000000000-
   817 00000784 000000000000000000-
   817 0000078D 010000000000000000-
   817 00000796 000000000000000000-
   817 0000079F 000000000000000000-
   817 000007A8 000000000000000000-
   817 000007B1 00000000           
   819                                  font_z_A$next:
   820 000007B5 E900010000              jmp font_z_B$next
   821 000007BA 000000000000000000-     font_z_B: dd 0,0,0,0,0,0,0,0,0,1,1,1,1,1,0,0,0,1,0,0,0,0,1,0,0,1,1,1,1,1,0,0,0,1,0,0,0,0,1,0,0,1,0,0,0,0,1,0,0,1,1,1,1,1,0,0,0,0,0,0,0,0,0,0,
   821 000007C3 000000000000000000-
   821 000007CC 000000000000000000-
   821 000007D5 000000000000000000-
   821 000007DE 010000000100000001-
   821 000007E7 000000010000000100-
   821 000007F0 000000000000000000-
   821 000007F9 000000000001000000-
   821 00000802 000000000000000000-
   821 0000080B 000000000000000100-
   821 00000814 000000000000000000-
   821 0000081D 000100000001000000-
   821 00000826 010000000100000001-
   821 0000082F 000000000000000000-
   821 00000838 000000000000010000-
   821 00000841 000000000000000000-
   821 0000084A 000000000000000001-
   821 00000853 000000000000000000-
   821 0000085C 000001000000000000-
   821 00000865 000000000000000000-
   821 0000086E 000000000100000000-
   821 00000877 000000000000000100-
   821 00000880 000001000000010000-
   821 00000889 000100000001000000-
   821 00000892 000000000000000000-
   821 0000089B 000000000000000000-
   821 000008A4 000000000000000000-
   821 000008AD 000000000000000000-
   821 000008B6 00000000           
   823                                  font_z_B$next:
   824 000008BA E900010000              jmp font_z_C$next
   825 000008BF 000000000000000000-     font_z_C: dd 0,0,0,0,0,0,0,0,0,0,1,1,1,1,0,0,0,1,0,0,0,0,1,0,0,1,0,0,0,0,0,0,0,1,0,0,0,0,0,0,0,1,0,0,0,0,1,0,0,0,1,1,1,1,0,0,0,0,0,0,0,0,0,0,
   825 000008C8 000000000000000000-
   825 000008D1 000000000000000000-
   825 000008DA 000000000000000000-
   825 000008E3 000000000100000001-
   825 000008EC 000000010000000100-
   825 000008F5 000000000000000000-
   825 000008FE 000000000001000000-
   825 00000907 000000000000000000-
   825 00000910 000000000000000100-
   825 00000919 000000000000000000-
   825 00000922 000100000000000000-
   825 0000092B 000000000000000000-
   825 00000934 000000000000000000-
   825 0000093D 000000000000010000-
   825 00000946 000000000000000000-
   825 0000094F 000000000000000000-
   825 00000958 000000000000000000-
   825 00000961 000001000000000000-
   825 0000096A 000000000000000000-
   825 00000973 000000000100000000-
   825 0000097C 000000000000000000-
   825 00000985 000001000000010000-
   825 0000098E 000100000001000000-
   825 00000997 000000000000000000-
   825 000009A0 000000000000000000-
   825 000009A9 000000000000000000-
   825 000009B2 000000000000000000-
   825 000009BB 00000000           
   827                                  font_z_C$next:
   828 000009BF E900010000              jmp font_z_D$next
   829 000009C4 000000000000000000-     font_z_D: dd 0,0,0,0,0,0,0,0,0,1,1,1,1,1,0,0,0,1,0,0,0,0,1,0,0,1,0,0,0,0,1,0,0,1,0,0,0,0,1,0,0,1,0,0,0,0,1,0,0,1,1,1,1,1,0,0,0,0,0,0,0,0,0,0,
   829 000009CD 000000000000000000-
   829 000009D6 000000000000000000-
   829 000009DF 000000000000000000-
   829 000009E8 010000000100000001-
   829 000009F1 000000010000000100-
   829 000009FA 000000000000000000-
   829 00000A03 000000000001000000-
   829 00000A0C 000000000000000000-
   829 00000A15 000000000000000100-
   829 00000A1E 000000000000000000-
   829 00000A27 000100000000000000-
   829 00000A30 000000000000000000-
   829 00000A39 000000010000000000-
   829 00000A42 000000000000010000-
   829 00000A4B 000000000000000000-
   829 00000A54 000000000000000001-
   829 00000A5D 000000000000000000-
   829 00000A66 000001000000000000-
   829 00000A6F 000000000000000000-
   829 00000A78 000000000100000000-
   829 00000A81 000000000000000100-
   829 00000A8A 000001000000010000-
   829 00000A93 000100000001000000-
   829 00000A9C 000000000000000000-
   829 00000AA5 000000000000000000-
   829 00000AAE 000000000000000000-
   829 00000AB7 000000000000000000-
   829 00000AC0 00000000           
   831                                  font_z_D$next:
   832 00000AC4 E900010000              jmp font_z_E$next
   833 00000AC9 000000000000000000-     font_z_E: dd 0,0,0,0,0,0,0,0,0,1,1,1,1,1,1,0,0,1,0,0,0,0,0,0,0,1,1,1,1,1,1,0,0,1,0,0,0,0,0,0,0,1,0,0,0,0,0,0,0,1,1,1,1,1,1,0,0,0,0,0,0,0,0,0,
   833 00000AD2 000000000000000000-
   833 00000ADB 000000000000000000-
   833 00000AE4 000000000000000000-
   833 00000AED 010000000100000001-
   833 00000AF6 000000010000000100-
   833 00000AFF 000001000000000000-
   833 00000B08 000000000001000000-
   833 00000B11 000000000000000000-
   833 00000B1A 000000000000000000-
   833 00000B23 000000000000000000-
   833 00000B2C 000100000001000000-
   833 00000B35 010000000100000001-
   833 00000B3E 000000010000000000-
   833 00000B47 000000000000010000-
   833 00000B50 000000000000000000-
   833 00000B59 000000000000000000-
   833 00000B62 000000000000000000-
   833 00000B6B 000001000000000000-
   833 00000B74 000000000000000000-
   833 00000B7D 000000000000000000-
   833 00000B86 000000000000000100-
   833 00000B8F 000001000000010000-
   833 00000B98 000100000001000000-
   833 00000BA1 010000000000000000-
   833 00000BAA 000000000000000000-
   833 00000BB3 000000000000000000-
   833 00000BBC 000000000000000000-
   833 00000BC5 00000000           
   835                                  font_z_E$next:
   836 00000BC9 E900010000              jmp font_z_F$next
   837 00000BCE 000000000000000000-     font_z_F: dd 0,0,0,0,0,0,0,0,0,1,1,1,1,1,1,0,0,1,0,0,0,0,0,0,0,1,1,1,1,1,0,0,0,1,0,0,0,0,0,0,0,1,0,0,0,0,0,0,0,1,0,0,0,0,0,0,0,0,0,0,0,0,0,0,
   837 00000BD7 000000000000000000-
   837 00000BE0 000000000000000000-
   837 00000BE9 000000000000000000-
   837 00000BF2 010000000100000001-
   837 00000BFB 000000010000000100-
   837 00000C04 000001000000000000-
   837 00000C0D 000000000001000000-
   837 00000C16 000000000000000000-
   837 00000C1F 000000000000000000-
   837 00000C28 000000000000000000-
   837 00000C31 000100000001000000-
   837 00000C3A 010000000100000001-
   837 00000C43 000000000000000000-
   837 00000C4C 000000000000010000-
   837 00000C55 000000000000000000-
   837 00000C5E 000000000000000000-
   837 00000C67 000000000000000000-
   837 00000C70 000001000000000000-
   837 00000C79 000000000000000000-
   837 00000C82 000000000000000000-
   837 00000C8B 000000000000000100-
   837 00000C94 000000000000000000-
   837 00000C9D 000000000000000000-
   837 00000CA6 000000000000000000-
   837 00000CAF 000000000000000000-
   837 00000CB8 000000000000000000-
   837 00000CC1 000000000000000000-
   837 00000CCA 00000000           
   839                                  font_z_F$next:
   840 00000CCE E900010000              jmp font_z_G$next
   841 00000CD3 000000000000000000-     font_z_G: dd 0,0,0,0,0,0,0,0,0,0,1,1,1,1,0,0,0,1,0,0,0,0,1,0,0,1,0,0,0,0,0,0,0,1,0,0,0,1,1,0,0,1,0,0,0,0,1,0,0,0,1,1,1,1,1,0,0,0,0,0,0,0,0,0,
   841 00000CDC 000000000000000000-
   841 00000CE5 000000000000000000-
   841 00000CEE 000000000000000000-
   841 00000CF7 000000000100000001-
   841 00000D00 000000010000000100-
   841 00000D09 000000000000000000-
   841 00000D12 000000000001000000-
   841 00000D1B 000000000000000000-
   841 00000D24 000000000000000100-
   841 00000D2D 000000000000000000-
   841 00000D36 000100000000000000-
   841 00000D3F 000000000000000000-
   841 00000D48 000000000000000000-
   841 00000D51 000000000000010000-
   841 00000D5A 000000000000000000-
   841 00000D63 000000000100000001-
   841 00000D6C 000000000000000000-
   841 00000D75 000001000000000000-
   841 00000D7E 000000000000000000-
   841 00000D87 000000000100000000-
   841 00000D90 000000000000000000-
   841 00000D99 000001000000010000-
   841 00000DA2 000100000001000000-
   841 00000DAB 010000000000000000-
   841 00000DB4 000000000000000000-
   841 00000DBD 000000000000000000-
   841 00000DC6 000000000000000000-
   841 00000DCF 00000000           
   843                                  font_z_G$next:
   844 00000DD3 E900010000              jmp font_z_H$next
   845 00000DD8 000000000000000000-     font_z_H: dd 0,0,0,0,0,0,0,0,0,1,0,0,0,0,1,0,0,1,0,0,0,0,1,0,0,1,1,1,1,1,1,0,0,1,0,0,0,0,1,0,0,1,0,0,0,0,1,0,0,1,0,0,0,0,1,0,0,0,0,0,0,0,0,0,
   845 00000DE1 000000000000000000-
   845 00000DEA 000000000000000000-
   845 00000DF3 000000000000000000-
   845 00000DFC 010000000000000000-
   845 00000E05 000000000000000000-
   845 00000E0E 000001000000000000-
   845 00000E17 000000000001000000-
   845 00000E20 000000000000000000-
   845 00000E29 000000000000000100-
   845 00000E32 000000000000000000-
   845 00000E3B 000100000001000000-
   845 00000E44 010000000100000001-
   845 00000E4D 000000010000000000-
   845 00000E56 000000000000010000-
   845 00000E5F 000000000000000000-
   845 00000E68 000000000000000001-
   845 00000E71 000000000000000000-
   845 00000E7A 000001000000000000-
   845 00000E83 000000000000000000-
   845 00000E8C 000000000100000000-
   845 00000E95 000000000000000100-
   845 00000E9E 000000000000000000-
   845 00000EA7 000000000000000000-
   845 00000EB0 010000000000000000-
   845 00000EB9 000000000000000000-
   845 00000EC2 000000000000000000-
   845 00000ECB 000000000000000000-
   845 00000ED4 00000000           
   847                                  font_z_H$next:
   848 00000ED8 E900010000              jmp font_z_I$next
   849 00000EDD 000000000000000000-     font_z_I: dd 0,0,0,0,0,0,0,0,0,0,1,1,1,0,0,0,0,0,0,1,0,0,0,0,0,0,0,1,0,0,0,0,0,0,0,1,0,0,0,0,0,0,0,1,0,0,0,0,0,0,1,1,1,0,0,0,0,0,0,0,0,0,0,0,
   849 00000EE6 000000000000000000-
   849 00000EEF 000000000000000000-
   849 00000EF8 000000000000000000-
   849 00000F01 000000000100000001-
   849 00000F0A 000000010000000000-
   849 00000F13 000000000000000000-
   849 00000F1C 000000000000000000-
   849 00000F25 000000000100000000-
   849 00000F2E 000000000000000000-
   849 00000F37 000000000000000000-
   849 00000F40 000000000000000000-
   849 00000F49 010000000000000000-
   849 00000F52 000000000000000000-
   849 00000F5B 000000000000000000-
   849 00000F64 000000000001000000-
   849 00000F6D 000000000000000000-
   849 00000F76 000000000000000000-
   849 00000F7F 000000000000000000-
   849 00000F88 000100000000000000-
   849 00000F91 000000000000000000-
   849 00000F9A 000000000000000000-
   849 00000FA3 000001000000010000-
   849 00000FAC 000100000000000000-
   849 00000FB5 000000000000000000-
   849 00000FBE 000000000000000000-
   849 00000FC7 000000000000000000-
   849 00000FD0 000000000000000000-
   849 00000FD9 00000000           
   851                                  font_z_I$next:
   852 00000FDD E900010000              jmp font_z_J$next
   853 00000FE2 000000000000000000-     font_z_J: dd 0,0,0,0,0,0,0,0,0,0,1,1,1,1,0,0,0,0,0,0,0,1,0,0,0,0,0,0,0,1,0,0,0,0,0,0,0,1,0,0,0,0,0,1,0,1,0,0,0,0,0,0,1,0,0,0,0,0,0,0,0,0,0,0,
   853 00000FEB 000000000000000000-
   853 00000FF4 000000000000000000-
   853 00000FFD 000000000000000000-
   853 00001006 000000000100000001-
   853 0000100F 000000010000000100-
   853 00001018 000000000000000000-
   853 00001021 000000000000000000-
   853 0000102A 000000000000000000-
   853 00001033 000000010000000000-
   853 0000103C 000000000000000000-
   853 00001045 000000000000000000-
   853 0000104E 000000000000000001-
   853 00001057 000000000000000000-
   853 00001060 000000000000000000-
   853 00001069 000000000000000000-
   853 00001072 000000000100000000-
   853 0000107B 000000000000000000-
   853 00001084 000000000000000000-
   853 0000108D 000100000000000000-
   853 00001096 010000000000000000-
   853 0000109F 000000000000000000-
   853 000010A8 000000000000000000-
   853 000010B1 000100000000000000-
   853 000010BA 000000000000000000-
   853 000010C3 000000000000000000-
   853 000010CC 000000000000000000-
   853 000010D5 000000000000000000-
   853 000010DE 00000000           
   855                                  font_z_J$next:
   856 000010E2 E900010000              jmp font_z_K$next
   857 000010E7 000000000000000000-     font_z_K: dd 0,0,0,0,0,0,0,0,0,1,0,0,1,1,0,0,0,1,0,1,1,0,0,0,0,1,1,1,0,0,0,0,0,1,0,1,1,0,0,0,0,1,0,0,1,1,0,0,0,1,0,0,0,1,1,0,0,0,0,0,0,0,0,0,
   857 000010F0 000000000000000000-
   857 000010F9 000000000000000000-
   857 00001102 000000000000000000-
   857 0000110B 010000000000000000-
   857 00001114 000000010000000100-
   857 0000111D 000000000000000000-
   857 00001126 000000000001000000-
   857 0000112F 000000000100000001-
   857 00001138 000000000000000000-
   857 00001141 000000000000000000-
   857 0000114A 000100000001000000-
   857 00001153 010000000000000000-
   857 0000115C 000000000000000000-
   857 00001165 000000000000010000-
   857 0000116E 000000000001000000-
   857 00001177 010000000000000000-
   857 00001180 000000000000000000-
   857 00001189 000001000000000000-
   857 00001192 000000000001000000-
   857 0000119B 010000000000000000-
   857 000011A4 000000000000000100-
   857 000011AD 000000000000000000-
   857 000011B6 000000000001000000-
   857 000011BF 010000000000000000-
   857 000011C8 000000000000000000-
   857 000011D1 000000000000000000-
   857 000011DA 000000000000000000-
   857 000011E3 00000000           
   859                                  font_z_K$next:
   860 000011E7 E900010000              jmp font_z_L$next
   861 000011EC 000000000000000000-     font_z_L: dd 0,0,0,0,0,0,0,0,0,0,1,0,0,0,0,0,0,0,1,0,0,0,0,0,0,0,1,0,0,0,0,0,0,0,1,0,0,0,0,0,0,0,1,0,0,0,0,0,0,0,1,1,1,1,0,0,0,0,0,0,0,0,0,0,
   861 000011F5 000000000000000000-
   861 000011FE 000000000000000000-
   861 00001207 000000000000000000-
   861 00001210 000000000100000000-
   861 00001219 000000000000000000-
   861 00001222 000000000000000000-
   861 0000122B 000000000000000000-
   861 00001234 010000000000000000-
   861 0000123D 000000000000000000-
   861 00001246 000000000000000000-
   861 0000124F 000000000001000000-
   861 00001258 000000000000000000-
   861 00001261 000000000000000000-
   861 0000126A 000000000000000000-
   861 00001273 000100000000000000-
   861 0000127C 000000000000000000-
   861 00001285 000000000000000000-
   861 0000128E 000000000000010000-
   861 00001297 000000000000000000-
   861 000012A0 000000000000000000-
   861 000012A9 000000000000000000-
   861 000012B2 000001000000010000-
   861 000012BB 000100000001000000-
   861 000012C4 000000000000000000-
   861 000012CD 000000000000000000-
   861 000012D6 000000000000000000-
   861 000012DF 000000000000000000-
   861 000012E8 00000000           
   863                                  font_z_L$next:
   864 000012EC E900010000              jmp font_z_M$next
   865 000012F1 000000000000000000-     font_z_M: dd 0,0,0,0,0,0,0,0,0,1,0,0,0,0,1,0,0,1,1,0,0,1,1,0,0,1,0,1,1,0,1,0,0,1,0,0,0,0,1,0,0,1,0,0,0,0,1,0,0,1,0,0,0,0,1,0,0,0,0,0,0,0,0,0,
   865 000012FA 000000000000000000-
   865 00001303 000000000000000000-
   865 0000130C 000000000000000000-
   865 00001315 010000000000000000-
   865 0000131E 000000000000000000-
   865 00001327 000001000000000000-
   865 00001330 000000000001000000-
   865 00001339 010000000000000000-
   865 00001342 000000010000000100-
   865 0000134B 000000000000000000-
   865 00001354 000100000000000000-
   865 0000135D 010000000100000000-
   865 00001366 000000010000000000-
   865 0000136F 000000000000010000-
   865 00001378 000000000000000000-
   865 00001381 000000000000000001-
   865 0000138A 000000000000000000-
   865 00001393 000001000000000000-
   865 0000139C 000000000000000000-
   865 000013A5 000000000100000000-
   865 000013AE 000000000000000100-
   865 000013B7 000000000000000000-
   865 000013C0 000000000000000000-
   865 000013C9 010000000000000000-
   865 000013D2 000000000000000000-
   865 000013DB 000000000000000000-
   865 000013E4 000000000000000000-
   865 000013ED 00000000           
   867                                  font_z_M$next:
   868 000013F1 E900010000              jmp font_z_N$next
   869 000013F6 000000000000000000-     font_z_N: dd 0,0,0,0,0,0,0,0,0,1,0,0,0,0,1,0,0,1,1,0,0,0,1,0,0,1,0,1,0,0,1,0,0,1,0,0,1,0,1,0,0,1,0,0,0,1,1,0,0,1,0,0,0,0,1,0,0,0,0,0,0,0,0,0,
   869 000013FF 000000000000000000-
   869 00001408 000000000000000000-
   869 00001411 000000000000000000-
   869 0000141A 010000000000000000-
   869 00001423 000000000000000000-
   869 0000142C 000001000000000000-
   869 00001435 000000000001000000-
   869 0000143E 010000000000000000-
   869 00001447 000000000000000100-
   869 00001450 000000000000000000-
   869 00001459 000100000000000000-
   869 00001462 010000000000000000-
   869 0000146B 000000010000000000-
   869 00001474 000000000000010000-
   869 0000147D 000000000000000000-
   869 00001486 010000000000000001-
   869 0000148F 000000000000000000-
   869 00001498 000001000000000000-
   869 000014A1 000000000000000000-
   869 000014AA 010000000100000000-
   869 000014B3 000000000000000100-
   869 000014BC 000000000000000000-
   869 000014C5 000000000000000000-
   869 000014CE 010000000000000000-
   869 000014D7 000000000000000000-
   869 000014E0 000000000000000000-
   869 000014E9 000000000000000000-
   869 000014F2 00000000           
   871                                  font_z_N$next:
   872 000014F6 E900010000              jmp font_z_O$next
   873 000014FB 000000000000000000-     font_z_O: dd 0,0,0,0,0,0,0,0,0,1,1,1,1,1,1,0,0,1,0,0,0,0,1,0,0,1,0,0,0,0,1,0,0,1,0,0,0,0,1,0,0,1,0,0,0,0,1,0,0,1,1,1,1,1,1,0,0,0,0,0,0,0,0,0,
   873 00001504 000000000000000000-
   873 0000150D 000000000000000000-
   873 00001516 000000000000000000-
   873 0000151F 010000000100000001-
   873 00001528 000000010000000100-
   873 00001531 000001000000000000-
   873 0000153A 000000000001000000-
   873 00001543 000000000000000000-
   873 0000154C 000000000000000100-
   873 00001555 000000000000000000-
   873 0000155E 000100000000000000-
   873 00001567 000000000000000000-
   873 00001570 000000010000000000-
   873 00001579 000000000000010000-
   873 00001582 000000000000000000-
   873 0000158B 000000000000000001-
   873 00001594 000000000000000000-
   873 0000159D 000001000000000000-
   873 000015A6 000000000000000000-
   873 000015AF 000000000100000000-
   873 000015B8 000000000000000100-
   873 000015C1 000001000000010000-
   873 000015CA 000100000001000000-
   873 000015D3 010000000000000000-
   873 000015DC 000000000000000000-
   873 000015E5 000000000000000000-
   873 000015EE 000000000000000000-
   873 000015F7 00000000           
   875                                  font_z_O$next:
   876 000015FB E900010000              jmp font_z_P$next
   877 00001600 000000000000000000-     font_z_P: dd 0,0,0,0,0,0,0,0,0,0,1,1,1,0,0,0,0,0,1,0,0,1,0,0,0,0,1,0,0,1,0,0,0,0,1,1,1,0,0,0,0,0,1,0,0,0,0,0,0,0,1,0,0,0,0,0,0,0,0,0,0,0,0,0,
   877 00001609 000000000000000000-
   877 00001612 000000000000000000-
   877 0000161B 000000000000000000-
   877 00001624 000000000100000001-
   877 0000162D 000000010000000000-
   877 00001636 000000000000000000-
   877 0000163F 000000000000000000-
   877 00001648 010000000000000000-
   877 00001651 000000010000000000-
   877 0000165A 000000000000000000-
   877 00001663 000000000001000000-
   877 0000166C 000000000000000001-
   877 00001675 000000000000000000-
   877 0000167E 000000000000000000-
   877 00001687 000100000001000000-
   877 00001690 010000000000000000-
   877 00001699 000000000000000000-
   877 000016A2 000000000000010000-
   877 000016AB 000000000000000000-
   877 000016B4 000000000000000000-
   877 000016BD 000000000000000000-
   877 000016C6 000001000000000000-
   877 000016CF 000000000000000000-
   877 000016D8 000000000000000000-
   877 000016E1 000000000000000000-
   877 000016EA 000000000000000000-
   877 000016F3 000000000000000000-
   877 000016FC 00000000           
   879                                  font_z_P$next:
   880 00001700 E900010000              jmp font_z_Q$next
   881 00001705 000000000000000000-     font_z_Q: dd 0,0,0,0,0,0,0,0,0,0,0,1,1,0,0,0,0,0,1,0,0,1,0,0,0,1,0,0,0,0,1,0,0,1,0,0,1,0,1,0,0,0,1,0,0,1,0,0,0,0,0,1,1,0,1,0,0,0,0,0,0,0,0,0,
   881 0000170E 000000000000000000-
   881 00001717 000000000000000000-
   881 00001720 000000000000000000-
   881 00001729 000000000000000001-
   881 00001732 000000010000000000-
   881 0000173B 000000000000000000-
   881 00001744 000000000000000000-
   881 0000174D 010000000000000000-
   881 00001756 000000010000000000-
   881 0000175F 000000000000000000-
   881 00001768 000100000000000000-
   881 00001771 000000000000000000-
   881 0000177A 000000010000000000-
   881 00001783 000000000000010000-
   881 0000178C 000000000000000000-
   881 00001795 010000000000000001-
   881 0000179E 000000000000000000-
   881 000017A7 000000000000010000-
   881 000017B0 000000000000000000-
   881 000017B9 010000000000000000-
   881 000017C2 000000000000000000-
   881 000017CB 000000000000010000-
   881 000017D4 000100000000000000-
   881 000017DD 010000000000000000-
   881 000017E6 000000000000000000-
   881 000017EF 000000000000000000-
   881 000017F8 000000000000000000-
   881 00001801 00000000           
   883                                  font_z_Q$next:
   884 00001805 E900010000              jmp font_z_R$next
   885 0000180A 000000000000000000-     font_z_R: dd 0,0,0,0,0,0,0,0,0,0,1,1,1,0,0,0,0,0,1,0,0,1,0,0,0,0,1,0,0,1,0,0,0,0,1,1,1,0,0,0,0,0,1,0,0,1,0,0,0,0,1,0,0,0,1,0,0,0,0,0,0,0,0,0,
   885 00001813 000000000000000000-
   885 0000181C 000000000000000000-
   885 00001825 000000000000000000-
   885 0000182E 000000000100000001-
   885 00001837 000000010000000000-
   885 00001840 000000000000000000-
   885 00001849 000000000000000000-
   885 00001852 010000000000000000-
   885 0000185B 000000010000000000-
   885 00001864 000000000000000000-
   885 0000186D 000000000001000000-
   885 00001876 000000000000000001-
   885 0000187F 000000000000000000-
   885 00001888 000000000000000000-
   885 00001891 000100000001000000-
   885 0000189A 010000000000000000-
   885 000018A3 000000000000000000-
   885 000018AC 000000000000010000-
   885 000018B5 000000000000000000-
   885 000018BE 010000000000000000-
   885 000018C7 000000000000000000-
   885 000018D0 000001000000000000-
   885 000018D9 000000000000000000-
   885 000018E2 010000000000000000-
   885 000018EB 000000000000000000-
   885 000018F4 000000000000000000-
   885 000018FD 000000000000000000-
   885 00001906 00000000           
   887                                  font_z_R$next:
   888 0000190A E900010000              jmp font_z_S$next
   889 0000190F 000000000000000000-     font_z_S: dd 0,0,0,0,0,0,0,0,0,0,1,1,1,1,0,0,0,1,0,0,0,0,1,0,0,0,1,1,0,0,0,0,0,0,0,0,1,1,0,0,0,1,0,0,0,0,1,0,0,0,1,1,1,1,0,0,0,0,0,0,0,0,0,0,
   889 00001918 000000000000000000-
   889 00001921 000000000000000000-
   889 0000192A 000000000000000000-
   889 00001933 000000000100000001-
   889 0000193C 000000010000000100-
   889 00001945 000000000000000000-
   889 0000194E 000000000001000000-
   889 00001957 000000000000000000-
   889 00001960 000000000000000100-
   889 00001969 000000000000000000-
   889 00001972 000000000001000000-
   889 0000197B 010000000000000000-
   889 00001984 000000000000000000-
   889 0000198D 000000000000000000-
   889 00001996 000000000000000000-
   889 0000199F 010000000100000000-
   889 000019A8 000000000000000000-
   889 000019B1 000001000000000000-
   889 000019BA 000000000000000000-
   889 000019C3 000000000100000000-
   889 000019CC 000000000000000000-
   889 000019D5 000001000000010000-
   889 000019DE 000100000001000000-
   889 000019E7 000000000000000000-
   889 000019F0 000000000000000000-
   889 000019F9 000000000000000000-
   889 00001A02 000000000000000000-
   889 00001A0B 00000000           
   891                                  font_z_S$next:
   892 00001A0F E900010000              jmp font_z_T$next
   893 00001A14 000000000000000000-     font_z_T: dd 0,0,0,0,0,0,0,0,0,1,1,1,1,1,0,0,0,0,0,1,0,0,0,0,0,0,0,1,0,0,0,0,0,0,0,1,0,0,0,0,0,0,0,1,0,0,0,0,0,0,0,1,0,0,0,0,0,0,0,0,0,0,0,0,
   893 00001A1D 000000000000000000-
   893 00001A26 000000000000000000-
   893 00001A2F 000000000000000000-
   893 00001A38 010000000100000001-
   893 00001A41 000000010000000100-
   893 00001A4A 000000000000000000-
   893 00001A53 000000000000000000-
   893 00001A5C 000000000100000000-
   893 00001A65 000000000000000000-
   893 00001A6E 000000000000000000-
   893 00001A77 000000000000000000-
   893 00001A80 010000000000000000-
   893 00001A89 000000000000000000-
   893 00001A92 000000000000000000-
   893 00001A9B 000000000001000000-
   893 00001AA4 000000000000000000-
   893 00001AAD 000000000000000000-
   893 00001AB6 000000000000000000-
   893 00001ABF 000100000000000000-
   893 00001AC8 000000000000000000-
   893 00001AD1 000000000000000000-
   893 00001ADA 000000000000010000-
   893 00001AE3 000000000000000000-
   893 00001AEC 000000000000000000-
   893 00001AF5 000000000000000000-
   893 00001AFE 000000000000000000-
   893 00001B07 000000000000000000-
   893 00001B10 00000000           
   895                                  font_z_T$next:
   896 00001B14 E900010000              jmp font_z_U$next
   897 00001B19 000000000000000000-     font_z_U: dd 0,0,0,0,0,0,0,0,0,1,0,0,0,0,1,0,0,1,0,0,0,0,1,0,0,1,0,0,0,0,1,0,0,1,0,0,0,0,1,0,0,0,1,0,0,1,0,0,0,0,0,1,1,0,0,0,0,0,0,0,0,0,0,0,
   897 00001B22 000000000000000000-
   897 00001B2B 000000000000000000-
   897 00001B34 000000000000000000-
   897 00001B3D 010000000000000000-
   897 00001B46 000000000000000000-
   897 00001B4F 000001000000000000-
   897 00001B58 000000000001000000-
   897 00001B61 000000000000000000-
   897 00001B6A 000000000000000100-
   897 00001B73 000000000000000000-
   897 00001B7C 000100000000000000-
   897 00001B85 000000000000000000-
   897 00001B8E 000000010000000000-
   897 00001B97 000000000000010000-
   897 00001BA0 000000000000000000-
   897 00001BA9 000000000000000001-
   897 00001BB2 000000000000000000-
   897 00001BBB 000000000000010000-
   897 00001BC4 000000000000000000-
   897 00001BCD 010000000000000000-
   897 00001BD6 000000000000000000-
   897 00001BDF 000000000000010000-
   897 00001BE8 000100000000000000-
   897 00001BF1 000000000000000000-
   897 00001BFA 000000000000000000-
   897 00001C03 000000000000000000-
   897 00001C0C 000000000000000000-
   897 00001C15 00000000           
   899                                  font_z_U$next:
   900 00001C19 E900010000              jmp font_z_V$next
   901 00001C1E 000000000000000000-     font_z_V: dd 0,0,0,0,0,0,0,0,0,1,0,0,0,0,1,0,0,1,0,0,0,0,1,0,0,0,1,0,0,1,0,0,0,0,1,0,0,1,0,0,0,0,0,1,1,0,0,0,0,0,0,1,1,0,0,0,0,0,0,0,0,0,0,0,
   901 00001C27 000000000000000000-
   901 00001C30 000000000000000000-
   901 00001C39 000000000000000000-
   901 00001C42 010000000000000000-
   901 00001C4B 000000000000000000-
   901 00001C54 000001000000000000-
   901 00001C5D 000000000001000000-
   901 00001C66 000000000000000000-
   901 00001C6F 000000000000000100-
   901 00001C78 000000000000000000-
   901 00001C81 000000000001000000-
   901 00001C8A 000000000000000001-
   901 00001C93 000000000000000000-
   901 00001C9C 000000000000000000-
   901 00001CA5 000100000000000000-
   901 00001CAE 000000000100000000-
   901 00001CB7 000000000000000000-
   901 00001CC0 000000000000000000-
   901 00001CC9 000100000001000000-
   901 00001CD2 000000000000000000-
   901 00001CDB 000000000000000000-
   901 00001CE4 000000000000010000-
   901 00001CED 000100000000000000-
   901 00001CF6 000000000000000000-
   901 00001CFF 000000000000000000-
   901 00001D08 000000000000000000-
   901 00001D11 000000000000000000-
   901 00001D1A 00000000           
   903                                  font_z_V$next:
   904 00001D1E E900010000              jmp font_z_W$next
   905 00001D23 000000000000000000-     font_z_W: dd 0,0,0,0,0,0,0,0,0,1,0,0,0,0,1,0,0,1,0,0,0,0,1,0,0,1,0,0,0,0,1,0,0,1,0,1,1,0,1,0,0,1,1,0,0,1,1,0,0,1,0,0,0,0,1,0,0,0,0,0,0,0,0,0,
   905 00001D2C 000000000000000000-
   905 00001D35 000000000000000000-
   905 00001D3E 000000000000000000-
   905 00001D47 010000000000000000-
   905 00001D50 000000000000000000-
   905 00001D59 000001000000000000-
   905 00001D62 000000000001000000-
   905 00001D6B 000000000000000000-
   905 00001D74 000000000000000100-
   905 00001D7D 000000000000000000-
   905 00001D86 000100000000000000-
   905 00001D8F 000000000000000000-
   905 00001D98 000000010000000000-
   905 00001DA1 000000000000010000-
   905 00001DAA 000000000001000000-
   905 00001DB3 010000000000000001-
   905 00001DBC 000000000000000000-
   905 00001DC5 000001000000010000-
   905 00001DCE 000000000000000000-
   905 00001DD7 010000000100000000-
   905 00001DE0 000000000000000100-
   905 00001DE9 000000000000000000-
   905 00001DF2 000000000000000000-
   905 00001DFB 010000000000000000-
   905 00001E04 000000000000000000-
   905 00001E0D 000000000000000000-
   905 00001E16 000000000000000000-
   905 00001E1F 00000000           
   907                                  font_z_W$next:
   908 00001E23 E900010000              jmp font_z_X$next
   909 00001E28 000000000000000000-     font_z_X: dd 0,0,0,0,0,0,0,0,0,1,0,0,0,0,1,0,0,0,1,0,0,1,0,0,0,0,0,1,1,0,0,0,0,0,0,1,1,0,0,0,0,0,1,0,0,1,0,0,0,1,0,0,0,0,1,0,0,0,0,0,0,0,0,0,
   909 00001E31 000000000000000000-
   909 00001E3A 000000000000000000-
   909 00001E43 000000000000000000-
   909 00001E4C 010000000000000000-
   909 00001E55 000000000000000000-
   909 00001E5E 000001000000000000-
   909 00001E67 000000000000000000-
   909 00001E70 010000000000000000-
   909 00001E79 000000010000000000-
   909 00001E82 000000000000000000-
   909 00001E8B 000000000000000000-
   909 00001E94 010000000100000000-
   909 00001E9D 000000000000000000-
   909 00001EA6 000000000000000000-
   909 00001EAF 000000000001000000-
   909 00001EB8 010000000000000000-
   909 00001EC1 000000000000000000-
   909 00001ECA 000000000000010000-
   909 00001ED3 000000000000000000-
   909 00001EDC 010000000000000000-
   909 00001EE5 000000000000000100-
   909 00001EEE 000000000000000000-
   909 00001EF7 000000000000000000-
   909 00001F00 010000000000000000-
   909 00001F09 000000000000000000-
   909 00001F12 000000000000000000-
   909 00001F1B 000000000000000000-
   909 00001F24 00000000           
   911                                  font_z_X$next:
   912 00001F28 E900010000              jmp font_z_Y$next
   913 00001F2D 000000000000000000-     font_z_Y: dd 0,0,0,0,0,0,0,0,0,1,0,0,0,1,0,0,0,0,1,0,1,0,0,0,0,0,0,1,0,0,0,0,0,0,0,1,0,0,0,0,0,0,0,1,0,0,0,0,0,0,0,1,0,0,0,0,0,0,0,0,0,0,0,0,
   913 00001F36 000000000000000000-
   913 00001F3F 000000000000000000-
   913 00001F48 000000000000000000-
   913 00001F51 010000000000000000-
   913 00001F5A 000000000000000100-
   913 00001F63 000000000000000000-
   913 00001F6C 000000000000000000-
   913 00001F75 010000000000000001-
   913 00001F7E 000000000000000000-
   913 00001F87 000000000000000000-
   913 00001F90 000000000000000000-
   913 00001F99 010000000000000000-
   913 00001FA2 000000000000000000-
   913 00001FAB 000000000000000000-
   913 00001FB4 000000000001000000-
   913 00001FBD 000000000000000000-
   913 00001FC6 000000000000000000-
   913 00001FCF 000000000000000000-
   913 00001FD8 000100000000000000-
   913 00001FE1 000000000000000000-
   913 00001FEA 000000000000000000-
   913 00001FF3 000000000000010000-
   913 00001FFC 000000000000000000-
   913 00002005 000000000000000000-
   913 0000200E 000000000000000000-
   913 00002017 000000000000000000-
   913 00002020 000000000000000000-
   913 00002029 00000000           
   915                                  font_z_Y$next:
   916 0000202D E900010000              jmp font_z_Z$next
   917 00002032 000000000000000000-     font_z_Z: dd 0,0,0,0,0,0,0,0,0,1,1,1,1,1,1,0,0,0,0,0,0,1,0,0,0,0,0,0,1,0,0,0,0,0,0,1,0,0,0,0,0,0,1,0,0,0,0,0,0,1,1,1,1,1,1,0,0,0,0,0,0,0,0,0,
   917 0000203B 000000000000000000-
   917 00002044 000000000000000000-
   917 0000204D 000000000000000000-
   917 00002056 010000000100000001-
   917 0000205F 000000010000000100-
   917 00002068 000001000000000000-
   917 00002071 000000000000000000-
   917 0000207A 000000000000000000-
   917 00002083 000000010000000000-
   917 0000208C 000000000000000000-
   917 00002095 000000000000000000-
   917 0000209E 000000000100000000-
   917 000020A7 000000000000000000-
   917 000020B0 000000000000000000-
   917 000020B9 000000000001000000-
   917 000020C2 000000000000000000-
   917 000020CB 000000000000000000-
   917 000020D4 000000000000010000-
   917 000020DD 000000000000000000-
   917 000020E6 000000000000000000-
   917 000020EF 000000000000000100-
   917 000020F8 000001000000010000-
   917 00002101 000100000001000000-
   917 0000210A 010000000000000000-
   917 00002113 000000000000000000-
   917 0000211C 000000000000000000-
   917 00002125 000000000000000000-
   917 0000212E 00000000           
   919                                  font_z_Z$next:
   920 00002132 E900010000              jmp font_z_question$next
   921 00002137 000000000000000000-     font_z_question: dd 0,0,0,0,0,0,0,0,0,0,1,1,1,1,0,0,0,1,0,0,0,0,1,0,0,0,0,0,0,1,0,0,0,0,0,0,1,0,0,0,0,0,0,0,1,0,0,0,0,0,0,0,0,0,0,0,0,0,0,0,1,0,0,0,
   921 00002140 000000000000000000-
   921 00002149 000000000000000000-
   921 00002152 000000000000000000-
   921 0000215B 000000000100000001-
   921 00002164 000000010000000100-
   921 0000216D 000000000000000000-
   921 00002176 000000000001000000-
   921 0000217F 000000000000000000-
   921 00002188 000000000000000100-
   921 00002191 000000000000000000-
   921 0000219A 000000000000000000-
   921 000021A3 000000000000000001-
   921 000021AC 000000000000000000-
   921 000021B5 000000000000000000-
   921 000021BE 000000000000000000-
   921 000021C7 010000000000000000-
   921 000021D0 000000000000000000-
   921 000021D9 000000000000000000-
   921 000021E2 000000000001000000-
   921 000021EB 000000000000000000-
   921 000021F4 000000000000000000-
   921 000021FD 000000000000000000-
   921 00002206 000000000000000000-
   921 0000220F 000000000000000000-
   921 00002218 000000000000000000-
   921 00002221 000000000000010000-
   921 0000222A 000000000000000000-
   921 00002233 00000000           
   923                                  font_z_question$next:
   924 00002237 E900010000              jmp font_z_space$next
   925 0000223C 000000000000000000-     font_z_space: dd 0,0,0,0,0,0,0,0,0,0,0,0,0,0,0,0,0,0,0,0,0,0,0,0,0,0,0,0,0,0,0,0,0,0,0,0,0,0,0,0,0,0,0,0,0,0,0,0,0,0,0,0,0,0,0,0,0,0,0,0,0,0,0,0,
   925 00002245 000000000000000000-
   925 0000224E 000000000000000000-
   925 00002257 000000000000000000-
   925 00002260 000000000000000000-
   925 00002269 000000000000000000-
   925 00002272 000000000000000000-
   925 0000227B 000000000000000000-
   925 00002284 000000000000000000-
   925 0000228D 000000000000000000-
   925 00002296 000000000000000000-
   925 0000229F 000000000000000000-
   925 000022A8 000000000000000000-
   925 000022B1 000000000000000000-
   925 000022BA 000000000000000000-
   925 000022C3 000000000000000000-
   925 000022CC 000000000000000000-
   925 000022D5 000000000000000000-
   925 000022DE 000000000000000000-
   925 000022E7 000000000000000000-
   925 000022F0 000000000000000000-
   925 000022F9 000000000000000000-
   925 00002302 000000000000000000-
   925 0000230B 000000000000000000-
   925 00002314 000000000000000000-
   925 0000231D 000000000000000000-
   925 00002326 000000000000000000-
   925 0000232F 000000000000000000-
   925 00002338 00000000           
   927                                  font_z_space$next:
   928 0000233C E900010000              jmp font_z_add$next
   929 00002341 000000000000000000-     font_z_add: dd 0,0,0,0,0,0,0,0,0,0,0,1,1,0,0,0,0,0,0,1,1,0,0,0,0,1,1,1,1,1,1,0,0,1,1,1,1,1,1,0,0,0,0,1,1,0,0,0,0,0,0,1,1,0,0,0,0,0,0,0,0,0,0,0,
   929 0000234A 000000000000000000-
   929 00002353 000000000000000000-
   929 0000235C 000000000000000000-
   929 00002365 000000000000000001-
   929 0000236E 000000010000000000-
   929 00002377 000000000000000000-
   929 00002380 000000000000000000-
   929 00002389 000000000100000001-
   929 00002392 000000000000000000-
   929 0000239B 000000000000000000-
   929 000023A4 000100000001000000-
   929 000023AD 010000000100000001-
   929 000023B6 000000010000000000-
   929 000023BF 000000000000010000-
   929 000023C8 000100000001000000-
   929 000023D1 010000000100000001-
   929 000023DA 000000000000000000-
   929 000023E3 000000000000000000-
   929 000023EC 000100000001000000-
   929 000023F5 000000000000000000-
   929 000023FE 000000000000000000-
   929 00002407 000000000000010000-
   929 00002410 000100000000000000-
   929 00002419 000000000000000000-
   929 00002422 000000000000000000-
   929 0000242B 000000000000000000-
   929 00002434 000000000000000000-
   929 0000243D 00000000           
   931                                  font_z_add$next:
   932 00002441 E900010000              jmp font_z_sub$next
   933 00002446 000000000000000000-     font_z_sub: dd 0,0,0,0,0,0,0,0,0,0,0,0,0,0,0,0,0,0,0,0,0,0,0,0,0,1,1,1,1,1,1,0,0,1,1,1,1,1,1,0,0,0,0,0,0,0,0,0,0,0,0,0,0,0,0,0,0,0,0,0,0,0,0,0,
   933 0000244F 000000000000000000-
   933 00002458 000000000000000000-
   933 00002461 000000000000000000-
   933 0000246A 000000000000000000-
   933 00002473 000000000000000000-
   933 0000247C 000000000000000000-
   933 00002485 000000000000000000-
   933 0000248E 000000000000000000-
   933 00002497 000000000000000000-
   933 000024A0 000000000000000000-
   933 000024A9 000100000001000000-
   933 000024B2 010000000100000001-
   933 000024BB 000000010000000000-
   933 000024C4 000000000000010000-
   933 000024CD 000100000001000000-
   933 000024D6 010000000100000001-
   933 000024DF 000000000000000000-
   933 000024E8 000000000000000000-
   933 000024F1 000000000000000000-
   933 000024FA 000000000000000000-
   933 00002503 000000000000000000-
   933 0000250C 000000000000000000-
   933 00002515 000000000000000000-
   933 0000251E 000000000000000000-
   933 00002527 000000000000000000-
   933 00002530 000000000000000000-
   933 00002539 000000000000000000-
   933 00002542 00000000           
   935                                  font_z_sub$next:
   936 00002546 E9A00F0000              jmp font_z_screen_buf$next
   937 0000254B 200000002000000020-     font_z_screen_buf: dd 32,32,32,32,33,34,35,36,37,38,39,32,32,32,32,32,32,32,32,32,32,32,32,32,32,32,32,32,32,32,32,32,32,32,32,32,32,32,32,32,32,32,32,32,32,32,32,32,32,32,32,32,32,32,32,32,32,32,32,32,32,32,32,32,32,32,32,32,32,32,32,32,32,32,32,32,32,32,32,32,32,32,32,32,32,32,32,32,32,32,32,32,32,32,32,32,32,32,32,32,32,32,32,32,32,32,32,32,32,32,32,32,32,32,32,32,32,32,32,32,32,32,32,32,32,32,32,32,32,32,32,32,32,32,32,32,32,32,32,32,32,32,32,32,32,32,32,32,32,32,32,32,32,32,32,32,32,32,32,32,32,32,32,32,32,32,32,32,32,32,32,32,32,32,32,32,32,32,32,32,32,32,32,32,32,32,32,32,32,32,32,32,32,32,32,32,32,32,32,32,32,32,32,32,32,32,32,32,32,32,32,32,32,32,32,32,32,32,32,32,32,32,32,32,32,32,32,32,32,32,32,32,32,32,32,32,32,32,32,32,32,32,32,32,32,32,32,32,32,32,32,32,32,32,32,32,32,32,32,32,32,32,32,32,32,32,32,32,32,32,32,32,32,32,32,32,32,32,32,32,32,32,32,32,32,32,32,32,32,32,32,32,32,32,32,32,32,32,32,32,32,32,32,32,32,32,32,32,32,32,32,32,32,32,32,32,32,32,32,32,32,32,32,32,32,32,32,32,32,32,32,32,32...
   937 00002554 000000200000002100-
   937 0000255D 000022000000230000-
   937 00002566 002400000025000000-
   937 0000256F 260000002700000020-
   937 00002578 000000200000002000-
   937 00002581 000020000000200000-
   937 0000258A 002000000020000000-
   937 00002593 200000002000000020-
   937 0000259C 000000200000002000-
   937 000025A5 000020000000200000-
   937 000025AE 002000000020000000-
   937 000025B7 200000002000000020-
   937 000025C0 000000200000002000-
   937 000025C9 000020000000200000-
   937 000025D2 002000000020000000-
   937 000025DB 200000002000000020-
   937 000025E4 000000200000002000-
   937 000025ED 000020000000200000-
   937 000025F6 002000000020000000-
   937 000025FF 200000002000000020-
   937 00002608 000000200000002000-
   937 00002611 000020000000200000-
   937 0000261A 002000000020000000-
   937 00002623 200000002000000020-
   937 0000262C 000000200000002000-
   937 00002635 000020000000200000-
   937 0000263E 002000000020000000-
   937 00002647 200000002000000020-
   937 00002650 000000200000002000-
   937 00002659 000020000000200000-
   937 00002662 002000000020000000-
   937 0000266B 200000002000000020-
   937 00002674 000000200000002000-
   937 0000267D 000020000000200000-
   937 00002686 002000000020000000-
   937 0000268F 200000002000000020-
   937 00002698 000000200000002000-
   937 000026A1 000020000000200000-
   937 000026AA 002000000020000000-
   937 000026B3 200000002000000020-
   937 000026BC 000000200000002000-
   937 000026C5 000020000000200000-
   937 000026CE 002000000020000000-
   937 000026D7 200000002000000020-
   937 000026E0 000000200000002000-
   937 000026E9 000020000000200000-
   937 000026F2 002000000020000000-
   937 000026FB 200000002000000020-
   937 00002704 000000200000002000-
   937 0000270D 000020000000200000-
   937 00002716 002000000020000000-
   937 0000271F 200000002000000020-
   937 00002728 000000200000002000-
   937 00002731 000020000000200000-
   937 0000273A 002000000020000000-
   937 00002743 200000002000000020-
   937 0000274C 000000200000002000-
   937 00002755 000020000000200000-
   937 0000275E 002000000020000000-
   937 00002767 200000002000000020-
   937 00002770 000000200000002000-
   937 00002779 000020000000200000-
   937 00002782 002000000020000000-
   937 0000278B 200000002000000020-
   937 00002794 000000200000002000-
   937 0000279D 000020000000200000-
   937 000027A6 002000000020000000-
   937 000027AF 200000002000000020-
   937 000027B8 000000200000002000-
   937 000027C1 000020000000200000-
   937 000027CA 002000000020000000-
   937 000027D3 200000002000000020-
   937 000027DC 000000200000002000-
   937 000027E5 000020000000200000-
   937 000027EE 002000000020000000-
   937 000027F7 200000002000000020-
   937 00002800 000000200000002000-
   937 00002809 000020000000200000-
   937 00002812 002000000020000000-
   937 0000281B 200000002000000020-
   937 00002824 000000200000002000-
   937 0000282D 000020000000200000-
   937 00002836 002000000020000000-
   937 0000283F 200000002000000020-
   937 00002848 000000200000002000-
   937 00002851 000020000000200000-
   937 0000285A 002000000020000000-
   937 00002863 200000002000000020-
   937 0000286C 000000200000002000-
   937 00002875 000020000000200000-
   937 0000287E 002000000020000000-
   937 00002887 200000002000000020-
   937 00002890 000000200000002000-
   937 00002899 000020000000200000-
   937 000028A2 002000000020000000-
   937 000028AB 200000002000000020-
   937 000028B4 000000200000002000-
   937 000028BD 000020000000200000-
   937 000028C6 002000000020000000-
   937 000028CF 200000002000000020-
   937 000028D8 000000200000002000-
   937 000028E1 000020000000200000-
   937 000028EA 002000000020000000-
   937 000028F3 200000002000000020-
   937 000028FC 000000200000002000-
   937 00002905 000020000000200000-
   937 0000290E 002000000020000000-
   937 00002917 200000002000000020-
   937 00002920 000000200000002000-
   937 00002929 000020000000200000-
   937 00002932 002000000020000000-
   937 0000293B 200000002000000020-
   937 00002944 000000200000002000-
   937 0000294D 000020000000200000-
   937 00002956 002000000020000000-
   937 0000295F 200000002000000020-
   937 00002968 000000200000002000-
   937 00002971 000020000000200000-
   937 0000297A 002000000020000000-
   937 00002983 200000002000000020-
   937 0000298C 000000200000002000-
   937 00002995 000020000000200000-
   937 0000299E 002000000020000000-
   937 000029A7 200000002000000020-
   937 000029B0 000000200000002000-
   937 000029B9 000020000000200000-
   937 000029C2 002000000020000000-
   937 000029CB 200000002000000020-
   937 000029D4 000000200000002000-
   937 000029DD 000020000000200000-
   937 000029E6 002000000020000000-
   937 000029EF 200000002000000020-
   937 000029F8 000000200000002000-
   937 00002A01 000020000000200000-
   937 00002A0A 002000000020000000-
   937 00002A13 200000002000000020-
   937 00002A1C 000000200000002000-
   937 00002A25 000020000000200000-
   937 00002A2E 002000000020000000-
   937 00002A37 200000002000000020-
   937 00002A40 000000200000002000-
   937 00002A49 000020000000200000-
   937 00002A52 002000000020000000-
   937 00002A5B 200000002000000020-
   937 00002A64 000000200000002000-
   937 00002A6D 000020000000200000-
   937 00002A76 002000000020000000-
   937 00002A7F 200000002000000020-
   937 00002A88 000000200000002000-
   937 00002A91 000020000000200000-
   937 00002A9A 002000000020000000-
   937 00002AA3 200000002000000020-
   937 00002AAC 000000200000002000-
   937 00002AB5 000020000000200000-
   937 00002ABE 002000000020000000-
   937 00002AC7 200000002000000020-
   937 00002AD0 000000200000002000-
   937 00002AD9 000020000000200000-
   937 00002AE2 002000000020000000-
   937 00002AEB 200000002000000020-
   937 00002AF4 000000200000002000-
   937 00002AFD 000020000000200000-
   937 00002B06 002000000020000000-
   937 00002B0F 200000002000000020-
   937 00002B18 000000200000002000-
   937 00002B21 000020000000200000-
   937 00002B2A 002000000020000000-
   937 00002B33 200000002000000020-
   937 00002B3C 000000200000002000-
   937 00002B45 000020000000200000-
   937 00002B4E 002000000020000000-
   937 00002B57 200000002000000020-
   937 00002B60 000000200000002000-
   937 00002B69 000020000000200000-
   937 00002B72 002000000020000000-
   937 00002B7B 200000002000000020-
   937 00002B84 000000200000002000-
   937 00002B8D 000020000000200000-
   937 00002B96 002000000020000000-
   937 00002B9F 200000002000000020-
   937 00002BA8 000000200000002000-
   937 00002BB1 000020000000200000-
   937 00002BBA 002000000020000000-
   937 00002BC3 200000002000000020-
   937 00002BCC 000000200000002000-
   937 00002BD5 000020000000200000-
   937 00002BDE 002000000020000000-
   937 00002BE7 200000002000000020-
   937 00002BF0 000000200000002000-
   937 00002BF9 000020000000200000-
   937 00002C02 002000000020000000-
   937 00002C0B 200000002000000020-
   937 00002C14 000000200000002000-
   937 00002C1D 000020000000200000-
   937 00002C26 002000000020000000-
   937 00002C2F 200000002000000020-
   937 00002C38 000000200000002000-
   937 00002C41 000020000000200000-
   937 00002C4A 002000000020000000-
   937 00002C53 200000002000000020-
   937 00002C5C 000000200000002000-
   937 00002C65 000020000000200000-
   937 00002C6E 002000000020000000-
   937 00002C77 200000002000000020-
   937 00002C80 000000200000002000-
   937 00002C89 000020000000200000-
   937 00002C92 002000000020000000-
   937 00002C9B 200000002000000020-
   937 00002CA4 000000200000002000-
   937 00002CAD 000020000000200000-
   937 00002CB6 002000000020000000-
   937 00002CBF 200000002000000020-
   937 00002CC8 000000200000002000-
   937 00002CD1 000020000000200000-
   937 00002CDA 002000000020000000-
   937 00002CE3 200000002000000020-
   937 00002CEC 000000200000002000-
   937 00002CF5 000020000000200000-
   937 00002CFE 002000000020000000-
   937 00002D07 200000002000000020-
   937 00002D10 000000200000002000-
   937 00002D19 000020000000200000-
   937 00002D22 002000000020000000-
   937 00002D2B 200000002000000020-
   937 00002D34 000000200000002000-
   937 00002D3D 000020000000200000-
   937 00002D46 002000000020000000-
   937 00002D4F 200000002000000020-
   937 00002D58 000000200000002000-
   937 00002D61 000020000000200000-
   937 00002D6A 002000000020000000-
   937 00002D73 200000002000000020-
   937 00002D7C 000000200000002000-
   937 00002D85 000020000000200000-
   937 00002D8E 002000000020000000-
   937 00002D97 200000002000000020-
   937 00002DA0 000000200000002000-
   937 00002DA9 000020000000200000-
   937 00002DB2 002000000020000000-
   937 00002DBB 200000002000000020-
   937 00002DC4 000000200000002000-
   937 00002DCD 000020000000200000-
   937 00002DD6 002000000020000000-
   937 00002DDF 200000002000000020-
   937 00002DE8 000000200000002000-
   937 00002DF1 000020000000200000-
   937 00002DFA 002000000020000000-
   937 00002E03 200000002000000020-
   937 00002E0C 000000200000002000-
   937 00002E15 000020000000200000-
   937 00002E1E 002000000020000000-
   937 00002E27 200000002000000020-
   937 00002E30 000000200000002000-
   937 00002E39 000020000000200000-
   937 00002E42 002000000020000000-
   937 00002E4B 200000002000000020-
   937 00002E54 000000200000002000-
   937 00002E5D 000020000000200000-
   937 00002E66 002000000020000000-
   937 00002E6F 200000002000000020-
   937 00002E78 000000200000002000-
   937 00002E81 000020000000200000-
   937 00002E8A 002000000020000000-
   937 00002E93 200000002000000020-
   937 00002E9C 000000200000002000-
   937 00002EA5 000020000000200000-
   937 00002EAE 002000000020000000-
   937 00002EB7 200000002000000020-
   937 00002EC0 000000200000002000-
   937 00002EC9 000020000000200000-
   937 00002ED2 002000000020000000-
   937 00002EDB 200000002000000020-
   937 00002EE4 000000200000002000-
   937 00002EED 000020000000200000-
   937 00002EF6 002000000020000000-
   937 00002EFF 200000002000000020-
   937 00002F08 000000200000002000-
   937 00002F11 000020000000200000-
   937 00002F1A 002000000020000000-
   937 00002F23 200000002000000020-
   937 00002F2C 000000200000002000-
   937 00002F35 000020000000200000-
   937 00002F3E 002000000020000000-
   937 00002F47 200000002000000020-
   937 00002F50 000000200000002000-
   937 00002F59 000020000000200000-
   937 00002F62 002000000020000000-
   937 00002F6B 200000002000000020-
   937 00002F74 000000200000002000-
   937 00002F7D 000020000000200000-
   937 00002F86 002000000020000000-
   937 00002F8F 200000002000000020-
   937 00002F98 000000200000002000-
   937 00002FA1 000020000000200000-
   937 00002FAA 002000000020000000-
   937 00002FB3 200000002000000020-
   937 00002FBC 000000200000002000-
   937 00002FC5 000020000000200000-
   937 00002FCE 002000000020000000-
   937 00002FD7 200000002000000020-
   937 00002FE0 000000200000002000-
   937 00002FE9 000020000000200000-
   937 00002FF2 002000000020000000-
   937 00002FFB 200000002000000020-
   937 00003004 000000200000002000-
   937 0000300D 000020000000200000-
   937 00003016 002000000020000000-
   937 0000301F 200000002000000020-
   937 00003028 000000200000002000-
   937 00003031 000020000000200000-
   937 0000303A 002000000020000000-
   937 00003043 200000002000000020-
   937 0000304C 000000200000002000-
   937 00003055 000020000000200000-
   937 0000305E 002000000020000000-
   937 00003067 200000002000000020-
   937 00003070 000000200000002000-
   937 00003079 000020000000200000-
   937 00003082 002000000020000000-
   937 0000308B 200000002000000020-
   937 00003094 000000200000002000-
   937 0000309D 000020000000200000-
   937 000030A6 002000000020000000-
   937 000030AF 200000002000000020-
   937 000030B8 000000200000002000-
   937 000030C1 000020000000200000-
   937 000030CA 002000000020000000-
   937 000030D3 200000002000000020-
   937 000030DC 000000200000002000-
   937 000030E5 000020000000200000-
   937 000030EE 002000000020000000-
   937 000030F7 200000002000000020-
   937 00003100 000000200000002000-
   937 00003109 000020000000200000-
   937 00003112 002000000020000000-
   937 0000311B 200000002000000020-
   937 00003124 000000200000002000-
   937 0000312D 000020000000200000-
   937 00003136 002000000020000000-
   937 0000313F 200000002000000020-
   937 00003148 000000200000002000-
   937 00003151 000020000000200000-
   937 0000315A 002000000020000000-
   937 00003163 200000002000000020-
   937 0000316C 000000200000002000-
   937 00003175 000020000000200000-
   937 0000317E 002000000020000000-
   937 00003187 200000002000000020-
   937 00003190 000000200000002000-
   937 00003199 000020000000200000-
   937 000031A2 002000000020000000-
   937 000031AB 200000002000000020-
   937 000031B4 000000200000002000-
   937 000031BD 000020000000200000-
   937 000031C6 002000000020000000-
   937 000031CF 200000002000000020-
   937 000031D8 000000200000002000-
   937 000031E1 000020000000200000-
   937 000031EA 002000000020000000-
   937 000031F3 200000002000000020-
   937 000031FC 000000200000002000-
   937 00003205 000020000000200000-
   937 0000320E 002000000020000000-
   937 00003217 200000002000000020-
   937 00003220 000000200000002000-
   937 00003229 000020000000200000-
   937 00003232 002000000020000000-
   937 0000323B 200000002000000020-
   937 00003244 000000200000002000-
   937 0000324D 000020000000200000-
   937 00003256 002000000020000000-
   937 0000325F 200000002000000020-
   937 00003268 000000200000002000-
   937 00003271 000020000000200000-
   937 0000327A 002000000020000000-
   937 00003283 200000002000000020-
   937 0000328C 000000200000002000-
   937 00003295 000020000000200000-
   937 0000329E 002000000020000000-
   937 000032A7 200000002000000020-
   937 000032B0 000000200000002000-
   937 000032B9 000020000000200000-
   937 000032C2 002000000020000000-
   937 000032CB 200000002000000020-
   937 000032D4 000000200000002000-
   937 000032DD 000020000000200000-
   937 000032E6 002000000020000000-
   937 000032EF 200000002000000020-
   937 000032F8 000000200000002000-
   937 00003301 000020000000200000-
   937 0000330A 002000000020000000-
   937 00003313 200000002000000020-
   937 0000331C 000000200000002000-
   937 00003325 000020000000200000-
   937 0000332E 002000000020000000-
   937 00003337 200000002000000020-
   937 00003340 000000200000002000-
   937 00003349 000020000000200000-
   937 00003352 002000000020000000-
   937 0000335B 200000002000000020-
   937 00003364 000000200000002000-
   937 0000336D 000020000000200000-
   937 00003376 002000000020000000-
   937 0000337F 200000002000000020-
   937 00003388 000000200000002000-
   937 00003391 000020000000200000-
   937 0000339A 002000000020000000-
   937 000033A3 200000002000000020-
   937 000033AC 000000200000002000-
   937 000033B5 000020000000200000-
   937 000033BE 002000000020000000-
   937 000033C7 200000002000000020-
   937 000033D0 000000200000002000-
   937 000033D9 000020000000200000-
   937 000033E2 002000000020000000-
   937 000033EB 200000002000000020-
   937 000033F4 000000200000002000-
   937 000033FD 000020000000200000-
   937 00003406 002000000020000000-
   937 0000340F 200000002000000020-
   937 00003418 000000200000002000-
   937 00003421 000020000000200000-
   937 0000342A 002000000020000000-
   937 00003433 200000002000000020-
   937 0000343C 000000200000002000-
   937 00003445 000020000000200000-
   937 0000344E 002000000020000000-
   937 00003457 200000002000000020-
   937 00003460 000000200000002000-
   937 00003469 000020000000200000-
   937 00003472 002000000020000000-
   937 0000347B 200000002000000020-
   937 00003484 000000200000002000-
   937 0000348D 000020000000200000-
   937 00003496 002000000020000000-
   937 0000349F 200000002000000020-
   937 000034A8 000000200000002000-
   937 000034B1 000020000000200000-
   937 000034BA 002000000020000000-
   937 000034C3 200000002000000020-
   937 000034CC 000000200000002000-
   937 000034D5 000020000000200000-
   937 000034DE 002000000020000000-
   937 000034E7 20000000           
   939                                  font_z_screen_buf$next:
   940                                  
   941                                  ;function
   942 000034EB E955050000              jmp font_z_getAddrByAscii$next
   943                                  font_z_getAddrByAscii:
   944                                  ;param
   945 000034F0 EB04                    jmp font_z_getAddrByAscii_ascii$next
   946 000034F2 00000000                font_z_getAddrByAscii_ascii: dd 0
   947                                  font_z_getAddrByAscii_ascii$next:
   948 000034F6 5D                      pop ebp
   949 000034F7 58                      pop eax
   950 000034F8 A3[F2340000]            mov [font_z_getAddrByAscii_ascii], eax
   951 000034FD 55                      push ebp
   952                                  ; if start
   953                                  font_z_getAddrByAscii_if$1_start:
   954 000034FE A1[F2340000]            mov eax, [font_z_getAddrByAscii_ascii]
   955 00003503 50                      push eax
   956 00003504 B820000000              mov eax, 32
   957 00003509 50                      push eax
   958 0000350A 5B                      pop ebx
   959 0000350B 58                      pop eax
   960 0000350C 39D8                    cmp eax, ebx
   961 0000350E 7407                    je font_z_getAddrByAscii_if$1_equal@true$1
   962 00003510 B800000000              mov eax, 0
   963 00003515 EB05                    jmp font_z_getAddrByAscii_if$1_equal@false$1
   964                                  font_z_getAddrByAscii_if$1_equal@true$1:
   965 00003517 B801000000              mov eax, 1
   966                                  font_z_getAddrByAscii_if$1_equal@false$1:
   967 0000351C 50                      push eax
   968 0000351D 58                      pop eax
   969 0000351E 83F800                  cmp eax, 0
   970 00003521 740D                    je font_z_getAddrByAscii_if$1_else
   971                                  font_z_getAddrByAscii_if$1_then:
   972 00003523 B8[3C220000]            mov eax, font_z_space
   973 00003528 50                      push eax
   974 00003529 58                      pop eax
   975 0000352A 5D                      pop ebp
   976 0000352B 50                      push eax
   977 0000352C 55                      push ebp
   978 0000352D C3                      ret
   979 0000352E EB00                    jmp font_z_getAddrByAscii_if$1_end
   980                                  font_z_getAddrByAscii_if$1_else:
   981                                  font_z_getAddrByAscii_if$1_end:
   982                                  ;if end
   983                                  ; if start
   984                                  font_z_getAddrByAscii_if$2_start:
   985 00003530 A1[F2340000]            mov eax, [font_z_getAddrByAscii_ascii]
   986 00003535 50                      push eax
   987 00003536 B841000000              mov eax, 65
   988 0000353B 50                      push eax
   989 0000353C 5B                      pop ebx
   990 0000353D 58                      pop eax
   991 0000353E 39D8                    cmp eax, ebx
   992 00003540 7407                    je font_z_getAddrByAscii_if$2_equal@true$2
   993 00003542 B800000000              mov eax, 0
   994 00003547 EB05                    jmp font_z_getAddrByAscii_if$2_equal@false$2
   995                                  font_z_getAddrByAscii_if$2_equal@true$2:
   996 00003549 B801000000              mov eax, 1
   997                                  font_z_getAddrByAscii_if$2_equal@false$2:
   998 0000354E 50                      push eax
   999 0000354F 58                      pop eax
  1000 00003550 83F800                  cmp eax, 0
  1001 00003553 740D                    je font_z_getAddrByAscii_if$2_else
  1002                                  font_z_getAddrByAscii_if$2_then:
  1003 00003555 B8[B5060000]            mov eax, font_z_A
  1004 0000355A 50                      push eax
  1005 0000355B 58                      pop eax
  1006 0000355C 5D                      pop ebp
  1007 0000355D 50                      push eax
  1008 0000355E 55                      push ebp
  1009 0000355F C3                      ret
  1010 00003560 EB00                    jmp font_z_getAddrByAscii_if$2_end
  1011                                  font_z_getAddrByAscii_if$2_else:
  1012                                  font_z_getAddrByAscii_if$2_end:
  1013                                  ;if end
  1014                                  ; if start
  1015                                  font_z_getAddrByAscii_if$3_start:
  1016 00003562 A1[F2340000]            mov eax, [font_z_getAddrByAscii_ascii]
  1017 00003567 50                      push eax
  1018 00003568 B842000000              mov eax, 66
  1019 0000356D 50                      push eax
  1020 0000356E 5B                      pop ebx
  1021 0000356F 58                      pop eax
  1022 00003570 39D8                    cmp eax, ebx
  1023 00003572 7407                    je font_z_getAddrByAscii_if$3_equal@true$3
  1024 00003574 B800000000              mov eax, 0
  1025 00003579 EB05                    jmp font_z_getAddrByAscii_if$3_equal@false$3
  1026                                  font_z_getAddrByAscii_if$3_equal@true$3:
  1027 0000357B B801000000              mov eax, 1
  1028                                  font_z_getAddrByAscii_if$3_equal@false$3:
  1029 00003580 50                      push eax
  1030 00003581 58                      pop eax
  1031 00003582 83F800                  cmp eax, 0
  1032 00003585 740D                    je font_z_getAddrByAscii_if$3_else
  1033                                  font_z_getAddrByAscii_if$3_then:
  1034 00003587 B8[BA070000]            mov eax, font_z_B
  1035 0000358C 50                      push eax
  1036 0000358D 58                      pop eax
  1037 0000358E 5D                      pop ebp
  1038 0000358F 50                      push eax
  1039 00003590 55                      push ebp
  1040 00003591 C3                      ret
  1041 00003592 EB00                    jmp font_z_getAddrByAscii_if$3_end
  1042                                  font_z_getAddrByAscii_if$3_else:
  1043                                  font_z_getAddrByAscii_if$3_end:
  1044                                  ;if end
  1045                                  ; if start
  1046                                  font_z_getAddrByAscii_if$4_start:
  1047 00003594 A1[F2340000]            mov eax, [font_z_getAddrByAscii_ascii]
  1048 00003599 50                      push eax
  1049 0000359A B843000000              mov eax, 67
  1050 0000359F 50                      push eax
  1051 000035A0 5B                      pop ebx
  1052 000035A1 58                      pop eax
  1053 000035A2 39D8                    cmp eax, ebx
  1054 000035A4 7407                    je font_z_getAddrByAscii_if$4_equal@true$4
  1055 000035A6 B800000000              mov eax, 0
  1056 000035AB EB05                    jmp font_z_getAddrByAscii_if$4_equal@false$4
  1057                                  font_z_getAddrByAscii_if$4_equal@true$4:
  1058 000035AD B801000000              mov eax, 1
  1059                                  font_z_getAddrByAscii_if$4_equal@false$4:
  1060 000035B2 50                      push eax
  1061 000035B3 58                      pop eax
  1062 000035B4 83F800                  cmp eax, 0
  1063 000035B7 740D                    je font_z_getAddrByAscii_if$4_else
  1064                                  font_z_getAddrByAscii_if$4_then:
  1065 000035B9 B8[BF080000]            mov eax, font_z_C
  1066 000035BE 50                      push eax
  1067 000035BF 58                      pop eax
  1068 000035C0 5D                      pop ebp
  1069 000035C1 50                      push eax
  1070 000035C2 55                      push ebp
  1071 000035C3 C3                      ret
  1072 000035C4 EB00                    jmp font_z_getAddrByAscii_if$4_end
  1073                                  font_z_getAddrByAscii_if$4_else:
  1074                                  font_z_getAddrByAscii_if$4_end:
  1075                                  ;if end
  1076                                  ; if start
  1077                                  font_z_getAddrByAscii_if$5_start:
  1078 000035C6 A1[F2340000]            mov eax, [font_z_getAddrByAscii_ascii]
  1079 000035CB 50                      push eax
  1080 000035CC B844000000              mov eax, 68
  1081 000035D1 50                      push eax
  1082 000035D2 5B                      pop ebx
  1083 000035D3 58                      pop eax
  1084 000035D4 39D8                    cmp eax, ebx
  1085 000035D6 7407                    je font_z_getAddrByAscii_if$5_equal@true$5
  1086 000035D8 B800000000              mov eax, 0
  1087 000035DD EB05                    jmp font_z_getAddrByAscii_if$5_equal@false$5
  1088                                  font_z_getAddrByAscii_if$5_equal@true$5:
  1089 000035DF B801000000              mov eax, 1
  1090                                  font_z_getAddrByAscii_if$5_equal@false$5:
  1091 000035E4 50                      push eax
  1092 000035E5 58                      pop eax
  1093 000035E6 83F800                  cmp eax, 0
  1094 000035E9 740D                    je font_z_getAddrByAscii_if$5_else
  1095                                  font_z_getAddrByAscii_if$5_then:
  1096 000035EB B8[C4090000]            mov eax, font_z_D
  1097 000035F0 50                      push eax
  1098 000035F1 58                      pop eax
  1099 000035F2 5D                      pop ebp
  1100 000035F3 50                      push eax
  1101 000035F4 55                      push ebp
  1102 000035F5 C3                      ret
  1103 000035F6 EB00                    jmp font_z_getAddrByAscii_if$5_end
  1104                                  font_z_getAddrByAscii_if$5_else:
  1105                                  font_z_getAddrByAscii_if$5_end:
  1106                                  ;if end
  1107                                  ; if start
  1108                                  font_z_getAddrByAscii_if$6_start:
  1109 000035F8 A1[F2340000]            mov eax, [font_z_getAddrByAscii_ascii]
  1110 000035FD 50                      push eax
  1111 000035FE B845000000              mov eax, 69
  1112 00003603 50                      push eax
  1113 00003604 5B                      pop ebx
  1114 00003605 58                      pop eax
  1115 00003606 39D8                    cmp eax, ebx
  1116 00003608 7407                    je font_z_getAddrByAscii_if$6_equal@true$6
  1117 0000360A B800000000              mov eax, 0
  1118 0000360F EB05                    jmp font_z_getAddrByAscii_if$6_equal@false$6
  1119                                  font_z_getAddrByAscii_if$6_equal@true$6:
  1120 00003611 B801000000              mov eax, 1
  1121                                  font_z_getAddrByAscii_if$6_equal@false$6:
  1122 00003616 50                      push eax
  1123 00003617 58                      pop eax
  1124 00003618 83F800                  cmp eax, 0
  1125 0000361B 740D                    je font_z_getAddrByAscii_if$6_else
  1126                                  font_z_getAddrByAscii_if$6_then:
  1127 0000361D B8[C90A0000]            mov eax, font_z_E
  1128 00003622 50                      push eax
  1129 00003623 58                      pop eax
  1130 00003624 5D                      pop ebp
  1131 00003625 50                      push eax
  1132 00003626 55                      push ebp
  1133 00003627 C3                      ret
  1134 00003628 EB00                    jmp font_z_getAddrByAscii_if$6_end
  1135                                  font_z_getAddrByAscii_if$6_else:
  1136                                  font_z_getAddrByAscii_if$6_end:
  1137                                  ;if end
  1138                                  ; if start
  1139                                  font_z_getAddrByAscii_if$7_start:
  1140 0000362A A1[F2340000]            mov eax, [font_z_getAddrByAscii_ascii]
  1141 0000362F 50                      push eax
  1142 00003630 B846000000              mov eax, 70
  1143 00003635 50                      push eax
  1144 00003636 5B                      pop ebx
  1145 00003637 58                      pop eax
  1146 00003638 39D8                    cmp eax, ebx
  1147 0000363A 7407                    je font_z_getAddrByAscii_if$7_equal@true$7
  1148 0000363C B800000000              mov eax, 0
  1149 00003641 EB05                    jmp font_z_getAddrByAscii_if$7_equal@false$7
  1150                                  font_z_getAddrByAscii_if$7_equal@true$7:
  1151 00003643 B801000000              mov eax, 1
  1152                                  font_z_getAddrByAscii_if$7_equal@false$7:
  1153 00003648 50                      push eax
  1154 00003649 58                      pop eax
  1155 0000364A 83F800                  cmp eax, 0
  1156 0000364D 740D                    je font_z_getAddrByAscii_if$7_else
  1157                                  font_z_getAddrByAscii_if$7_then:
  1158 0000364F B8[CE0B0000]            mov eax, font_z_F
  1159 00003654 50                      push eax
  1160 00003655 58                      pop eax
  1161 00003656 5D                      pop ebp
  1162 00003657 50                      push eax
  1163 00003658 55                      push ebp
  1164 00003659 C3                      ret
  1165 0000365A EB00                    jmp font_z_getAddrByAscii_if$7_end
  1166                                  font_z_getAddrByAscii_if$7_else:
  1167                                  font_z_getAddrByAscii_if$7_end:
  1168                                  ;if end
  1169                                  ; if start
  1170                                  font_z_getAddrByAscii_if$8_start:
  1171 0000365C A1[F2340000]            mov eax, [font_z_getAddrByAscii_ascii]
  1172 00003661 50                      push eax
  1173 00003662 B847000000              mov eax, 71
  1174 00003667 50                      push eax
  1175 00003668 5B                      pop ebx
  1176 00003669 58                      pop eax
  1177 0000366A 39D8                    cmp eax, ebx
  1178 0000366C 7407                    je font_z_getAddrByAscii_if$8_equal@true$8
  1179 0000366E B800000000              mov eax, 0
  1180 00003673 EB05                    jmp font_z_getAddrByAscii_if$8_equal@false$8
  1181                                  font_z_getAddrByAscii_if$8_equal@true$8:
  1182 00003675 B801000000              mov eax, 1
  1183                                  font_z_getAddrByAscii_if$8_equal@false$8:
  1184 0000367A 50                      push eax
  1185 0000367B 58                      pop eax
  1186 0000367C 83F800                  cmp eax, 0
  1187 0000367F 740D                    je font_z_getAddrByAscii_if$8_else
  1188                                  font_z_getAddrByAscii_if$8_then:
  1189 00003681 B8[D30C0000]            mov eax, font_z_G
  1190 00003686 50                      push eax
  1191 00003687 58                      pop eax
  1192 00003688 5D                      pop ebp
  1193 00003689 50                      push eax
  1194 0000368A 55                      push ebp
  1195 0000368B C3                      ret
  1196 0000368C EB00                    jmp font_z_getAddrByAscii_if$8_end
  1197                                  font_z_getAddrByAscii_if$8_else:
  1198                                  font_z_getAddrByAscii_if$8_end:
  1199                                  ;if end
  1200                                  ; if start
  1201                                  font_z_getAddrByAscii_if$9_start:
  1202 0000368E A1[F2340000]            mov eax, [font_z_getAddrByAscii_ascii]
  1203 00003693 50                      push eax
  1204 00003694 B848000000              mov eax, 72
  1205 00003699 50                      push eax
  1206 0000369A 5B                      pop ebx
  1207 0000369B 58                      pop eax
  1208 0000369C 39D8                    cmp eax, ebx
  1209 0000369E 7407                    je font_z_getAddrByAscii_if$9_equal@true$9
  1210 000036A0 B800000000              mov eax, 0
  1211 000036A5 EB05                    jmp font_z_getAddrByAscii_if$9_equal@false$9
  1212                                  font_z_getAddrByAscii_if$9_equal@true$9:
  1213 000036A7 B801000000              mov eax, 1
  1214                                  font_z_getAddrByAscii_if$9_equal@false$9:
  1215 000036AC 50                      push eax
  1216 000036AD 58                      pop eax
  1217 000036AE 83F800                  cmp eax, 0
  1218 000036B1 740D                    je font_z_getAddrByAscii_if$9_else
  1219                                  font_z_getAddrByAscii_if$9_then:
  1220 000036B3 B8[D80D0000]            mov eax, font_z_H
  1221 000036B8 50                      push eax
  1222 000036B9 58                      pop eax
  1223 000036BA 5D                      pop ebp
  1224 000036BB 50                      push eax
  1225 000036BC 55                      push ebp
  1226 000036BD C3                      ret
  1227 000036BE EB00                    jmp font_z_getAddrByAscii_if$9_end
  1228                                  font_z_getAddrByAscii_if$9_else:
  1229                                  font_z_getAddrByAscii_if$9_end:
  1230                                  ;if end
  1231                                  ; if start
  1232                                  font_z_getAddrByAscii_if$10_start:
  1233 000036C0 A1[F2340000]            mov eax, [font_z_getAddrByAscii_ascii]
  1234 000036C5 50                      push eax
  1235 000036C6 B849000000              mov eax, 73
  1236 000036CB 50                      push eax
  1237 000036CC 5B                      pop ebx
  1238 000036CD 58                      pop eax
  1239 000036CE 39D8                    cmp eax, ebx
  1240 000036D0 7407                    je font_z_getAddrByAscii_if$10_equal@true$10
  1241 000036D2 B800000000              mov eax, 0
  1242 000036D7 EB05                    jmp font_z_getAddrByAscii_if$10_equal@false$10
  1243                                  font_z_getAddrByAscii_if$10_equal@true$10:
  1244 000036D9 B801000000              mov eax, 1
  1245                                  font_z_getAddrByAscii_if$10_equal@false$10:
  1246 000036DE 50                      push eax
  1247 000036DF 58                      pop eax
  1248 000036E0 83F800                  cmp eax, 0
  1249 000036E3 740D                    je font_z_getAddrByAscii_if$10_else
  1250                                  font_z_getAddrByAscii_if$10_then:
  1251 000036E5 B8[DD0E0000]            mov eax, font_z_I
  1252 000036EA 50                      push eax
  1253 000036EB 58                      pop eax
  1254 000036EC 5D                      pop ebp
  1255 000036ED 50                      push eax
  1256 000036EE 55                      push ebp
  1257 000036EF C3                      ret
  1258 000036F0 EB00                    jmp font_z_getAddrByAscii_if$10_end
  1259                                  font_z_getAddrByAscii_if$10_else:
  1260                                  font_z_getAddrByAscii_if$10_end:
  1261                                  ;if end
  1262                                  ; if start
  1263                                  font_z_getAddrByAscii_if$11_start:
  1264 000036F2 A1[F2340000]            mov eax, [font_z_getAddrByAscii_ascii]
  1265 000036F7 50                      push eax
  1266 000036F8 B84A000000              mov eax, 74
  1267 000036FD 50                      push eax
  1268 000036FE 5B                      pop ebx
  1269 000036FF 58                      pop eax
  1270 00003700 39D8                    cmp eax, ebx
  1271 00003702 7407                    je font_z_getAddrByAscii_if$11_equal@true$11
  1272 00003704 B800000000              mov eax, 0
  1273 00003709 EB05                    jmp font_z_getAddrByAscii_if$11_equal@false$11
  1274                                  font_z_getAddrByAscii_if$11_equal@true$11:
  1275 0000370B B801000000              mov eax, 1
  1276                                  font_z_getAddrByAscii_if$11_equal@false$11:
  1277 00003710 50                      push eax
  1278 00003711 58                      pop eax
  1279 00003712 83F800                  cmp eax, 0
  1280 00003715 740D                    je font_z_getAddrByAscii_if$11_else
  1281                                  font_z_getAddrByAscii_if$11_then:
  1282 00003717 B8[D30C0000]            mov eax, font_z_G
  1283 0000371C 50                      push eax
  1284 0000371D 58                      pop eax
  1285 0000371E 5D                      pop ebp
  1286 0000371F 50                      push eax
  1287 00003720 55                      push ebp
  1288 00003721 C3                      ret
  1289 00003722 EB00                    jmp font_z_getAddrByAscii_if$11_end
  1290                                  font_z_getAddrByAscii_if$11_else:
  1291                                  font_z_getAddrByAscii_if$11_end:
  1292                                  ;if end
  1293                                  ; if start
  1294                                  font_z_getAddrByAscii_if$12_start:
  1295 00003724 A1[F2340000]            mov eax, [font_z_getAddrByAscii_ascii]
  1296 00003729 50                      push eax
  1297 0000372A B84B000000              mov eax, 75
  1298 0000372F 50                      push eax
  1299 00003730 5B                      pop ebx
  1300 00003731 58                      pop eax
  1301 00003732 39D8                    cmp eax, ebx
  1302 00003734 7407                    je font_z_getAddrByAscii_if$12_equal@true$12
  1303 00003736 B800000000              mov eax, 0
  1304 0000373B EB05                    jmp font_z_getAddrByAscii_if$12_equal@false$12
  1305                                  font_z_getAddrByAscii_if$12_equal@true$12:
  1306 0000373D B801000000              mov eax, 1
  1307                                  font_z_getAddrByAscii_if$12_equal@false$12:
  1308 00003742 50                      push eax
  1309 00003743 58                      pop eax
  1310 00003744 83F800                  cmp eax, 0
  1311 00003747 740D                    je font_z_getAddrByAscii_if$12_else
  1312                                  font_z_getAddrByAscii_if$12_then:
  1313 00003749 B8[E7100000]            mov eax, font_z_K
  1314 0000374E 50                      push eax
  1315 0000374F 58                      pop eax
  1316 00003750 5D                      pop ebp
  1317 00003751 50                      push eax
  1318 00003752 55                      push ebp
  1319 00003753 C3                      ret
  1320 00003754 EB00                    jmp font_z_getAddrByAscii_if$12_end
  1321                                  font_z_getAddrByAscii_if$12_else:
  1322                                  font_z_getAddrByAscii_if$12_end:
  1323                                  ;if end
  1324                                  ; if start
  1325                                  font_z_getAddrByAscii_if$13_start:
  1326 00003756 A1[F2340000]            mov eax, [font_z_getAddrByAscii_ascii]
  1327 0000375B 50                      push eax
  1328 0000375C B84C000000              mov eax, 76
  1329 00003761 50                      push eax
  1330 00003762 5B                      pop ebx
  1331 00003763 58                      pop eax
  1332 00003764 39D8                    cmp eax, ebx
  1333 00003766 7407                    je font_z_getAddrByAscii_if$13_equal@true$13
  1334 00003768 B800000000              mov eax, 0
  1335 0000376D EB05                    jmp font_z_getAddrByAscii_if$13_equal@false$13
  1336                                  font_z_getAddrByAscii_if$13_equal@true$13:
  1337 0000376F B801000000              mov eax, 1
  1338                                  font_z_getAddrByAscii_if$13_equal@false$13:
  1339 00003774 50                      push eax
  1340 00003775 58                      pop eax
  1341 00003776 83F800                  cmp eax, 0
  1342 00003779 740D                    je font_z_getAddrByAscii_if$13_else
  1343                                  font_z_getAddrByAscii_if$13_then:
  1344 0000377B B8[EC110000]            mov eax, font_z_L
  1345 00003780 50                      push eax
  1346 00003781 58                      pop eax
  1347 00003782 5D                      pop ebp
  1348 00003783 50                      push eax
  1349 00003784 55                      push ebp
  1350 00003785 C3                      ret
  1351 00003786 EB00                    jmp font_z_getAddrByAscii_if$13_end
  1352                                  font_z_getAddrByAscii_if$13_else:
  1353                                  font_z_getAddrByAscii_if$13_end:
  1354                                  ;if end
  1355                                  ; if start
  1356                                  font_z_getAddrByAscii_if$14_start:
  1357 00003788 A1[F2340000]            mov eax, [font_z_getAddrByAscii_ascii]
  1358 0000378D 50                      push eax
  1359 0000378E B84D000000              mov eax, 77
  1360 00003793 50                      push eax
  1361 00003794 5B                      pop ebx
  1362 00003795 58                      pop eax
  1363 00003796 39D8                    cmp eax, ebx
  1364 00003798 7407                    je font_z_getAddrByAscii_if$14_equal@true$14
  1365 0000379A B800000000              mov eax, 0
  1366 0000379F EB05                    jmp font_z_getAddrByAscii_if$14_equal@false$14
  1367                                  font_z_getAddrByAscii_if$14_equal@true$14:
  1368 000037A1 B801000000              mov eax, 1
  1369                                  font_z_getAddrByAscii_if$14_equal@false$14:
  1370 000037A6 50                      push eax
  1371 000037A7 58                      pop eax
  1372 000037A8 83F800                  cmp eax, 0
  1373 000037AB 740D                    je font_z_getAddrByAscii_if$14_else
  1374                                  font_z_getAddrByAscii_if$14_then:
  1375 000037AD B8[F1120000]            mov eax, font_z_M
  1376 000037B2 50                      push eax
  1377 000037B3 58                      pop eax
  1378 000037B4 5D                      pop ebp
  1379 000037B5 50                      push eax
  1380 000037B6 55                      push ebp
  1381 000037B7 C3                      ret
  1382 000037B8 EB00                    jmp font_z_getAddrByAscii_if$14_end
  1383                                  font_z_getAddrByAscii_if$14_else:
  1384                                  font_z_getAddrByAscii_if$14_end:
  1385                                  ;if end
  1386                                  ; if start
  1387                                  font_z_getAddrByAscii_if$15_start:
  1388 000037BA A1[F2340000]            mov eax, [font_z_getAddrByAscii_ascii]
  1389 000037BF 50                      push eax
  1390 000037C0 B84E000000              mov eax, 78
  1391 000037C5 50                      push eax
  1392 000037C6 5B                      pop ebx
  1393 000037C7 58                      pop eax
  1394 000037C8 39D8                    cmp eax, ebx
  1395 000037CA 7407                    je font_z_getAddrByAscii_if$15_equal@true$15
  1396 000037CC B800000000              mov eax, 0
  1397 000037D1 EB05                    jmp font_z_getAddrByAscii_if$15_equal@false$15
  1398                                  font_z_getAddrByAscii_if$15_equal@true$15:
  1399 000037D3 B801000000              mov eax, 1
  1400                                  font_z_getAddrByAscii_if$15_equal@false$15:
  1401 000037D8 50                      push eax
  1402 000037D9 58                      pop eax
  1403 000037DA 83F800                  cmp eax, 0
  1404 000037DD 740D                    je font_z_getAddrByAscii_if$15_else
  1405                                  font_z_getAddrByAscii_if$15_then:
  1406 000037DF B8[F6130000]            mov eax, font_z_N
  1407 000037E4 50                      push eax
  1408 000037E5 58                      pop eax
  1409 000037E6 5D                      pop ebp
  1410 000037E7 50                      push eax
  1411 000037E8 55                      push ebp
  1412 000037E9 C3                      ret
  1413 000037EA EB00                    jmp font_z_getAddrByAscii_if$15_end
  1414                                  font_z_getAddrByAscii_if$15_else:
  1415                                  font_z_getAddrByAscii_if$15_end:
  1416                                  ;if end
  1417                                  ; if start
  1418                                  font_z_getAddrByAscii_if$16_start:
  1419 000037EC A1[F2340000]            mov eax, [font_z_getAddrByAscii_ascii]
  1420 000037F1 50                      push eax
  1421 000037F2 B84F000000              mov eax, 79
  1422 000037F7 50                      push eax
  1423 000037F8 5B                      pop ebx
  1424 000037F9 58                      pop eax
  1425 000037FA 39D8                    cmp eax, ebx
  1426 000037FC 7407                    je font_z_getAddrByAscii_if$16_equal@true$16
  1427 000037FE B800000000              mov eax, 0
  1428 00003803 EB05                    jmp font_z_getAddrByAscii_if$16_equal@false$16
  1429                                  font_z_getAddrByAscii_if$16_equal@true$16:
  1430 00003805 B801000000              mov eax, 1
  1431                                  font_z_getAddrByAscii_if$16_equal@false$16:
  1432 0000380A 50                      push eax
  1433 0000380B 58                      pop eax
  1434 0000380C 83F800                  cmp eax, 0
  1435 0000380F 740D                    je font_z_getAddrByAscii_if$16_else
  1436                                  font_z_getAddrByAscii_if$16_then:
  1437 00003811 B8[FB140000]            mov eax, font_z_O
  1438 00003816 50                      push eax
  1439 00003817 58                      pop eax
  1440 00003818 5D                      pop ebp
  1441 00003819 50                      push eax
  1442 0000381A 55                      push ebp
  1443 0000381B C3                      ret
  1444 0000381C EB00                    jmp font_z_getAddrByAscii_if$16_end
  1445                                  font_z_getAddrByAscii_if$16_else:
  1446                                  font_z_getAddrByAscii_if$16_end:
  1447                                  ;if end
  1448                                  ; if start
  1449                                  font_z_getAddrByAscii_if$17_start:
  1450 0000381E A1[F2340000]            mov eax, [font_z_getAddrByAscii_ascii]
  1451 00003823 50                      push eax
  1452 00003824 B850000000              mov eax, 80
  1453 00003829 50                      push eax
  1454 0000382A 5B                      pop ebx
  1455 0000382B 58                      pop eax
  1456 0000382C 39D8                    cmp eax, ebx
  1457 0000382E 7407                    je font_z_getAddrByAscii_if$17_equal@true$17
  1458 00003830 B800000000              mov eax, 0
  1459 00003835 EB05                    jmp font_z_getAddrByAscii_if$17_equal@false$17
  1460                                  font_z_getAddrByAscii_if$17_equal@true$17:
  1461 00003837 B801000000              mov eax, 1
  1462                                  font_z_getAddrByAscii_if$17_equal@false$17:
  1463 0000383C 50                      push eax
  1464 0000383D 58                      pop eax
  1465 0000383E 83F800                  cmp eax, 0
  1466 00003841 740D                    je font_z_getAddrByAscii_if$17_else
  1467                                  font_z_getAddrByAscii_if$17_then:
  1468 00003843 B8[00160000]            mov eax, font_z_P
  1469 00003848 50                      push eax
  1470 00003849 58                      pop eax
  1471 0000384A 5D                      pop ebp
  1472 0000384B 50                      push eax
  1473 0000384C 55                      push ebp
  1474 0000384D C3                      ret
  1475 0000384E EB00                    jmp font_z_getAddrByAscii_if$17_end
  1476                                  font_z_getAddrByAscii_if$17_else:
  1477                                  font_z_getAddrByAscii_if$17_end:
  1478                                  ;if end
  1479                                  ; if start
  1480                                  font_z_getAddrByAscii_if$18_start:
  1481 00003850 A1[F2340000]            mov eax, [font_z_getAddrByAscii_ascii]
  1482 00003855 50                      push eax
  1483 00003856 B851000000              mov eax, 81
  1484 0000385B 50                      push eax
  1485 0000385C 5B                      pop ebx
  1486 0000385D 58                      pop eax
  1487 0000385E 39D8                    cmp eax, ebx
  1488 00003860 7407                    je font_z_getAddrByAscii_if$18_equal@true$18
  1489 00003862 B800000000              mov eax, 0
  1490 00003867 EB05                    jmp font_z_getAddrByAscii_if$18_equal@false$18
  1491                                  font_z_getAddrByAscii_if$18_equal@true$18:
  1492 00003869 B801000000              mov eax, 1
  1493                                  font_z_getAddrByAscii_if$18_equal@false$18:
  1494 0000386E 50                      push eax
  1495 0000386F 58                      pop eax
  1496 00003870 83F800                  cmp eax, 0
  1497 00003873 740D                    je font_z_getAddrByAscii_if$18_else
  1498                                  font_z_getAddrByAscii_if$18_then:
  1499 00003875 B8[05170000]            mov eax, font_z_Q
  1500 0000387A 50                      push eax
  1501 0000387B 58                      pop eax
  1502 0000387C 5D                      pop ebp
  1503 0000387D 50                      push eax
  1504 0000387E 55                      push ebp
  1505 0000387F C3                      ret
  1506 00003880 EB00                    jmp font_z_getAddrByAscii_if$18_end
  1507                                  font_z_getAddrByAscii_if$18_else:
  1508                                  font_z_getAddrByAscii_if$18_end:
  1509                                  ;if end
  1510                                  ; if start
  1511                                  font_z_getAddrByAscii_if$19_start:
  1512 00003882 A1[F2340000]            mov eax, [font_z_getAddrByAscii_ascii]
  1513 00003887 50                      push eax
  1514 00003888 B852000000              mov eax, 82
  1515 0000388D 50                      push eax
  1516 0000388E 5B                      pop ebx
  1517 0000388F 58                      pop eax
  1518 00003890 39D8                    cmp eax, ebx
  1519 00003892 7407                    je font_z_getAddrByAscii_if$19_equal@true$19
  1520 00003894 B800000000              mov eax, 0
  1521 00003899 EB05                    jmp font_z_getAddrByAscii_if$19_equal@false$19
  1522                                  font_z_getAddrByAscii_if$19_equal@true$19:
  1523 0000389B B801000000              mov eax, 1
  1524                                  font_z_getAddrByAscii_if$19_equal@false$19:
  1525 000038A0 50                      push eax
  1526 000038A1 58                      pop eax
  1527 000038A2 83F800                  cmp eax, 0
  1528 000038A5 740D                    je font_z_getAddrByAscii_if$19_else
  1529                                  font_z_getAddrByAscii_if$19_then:
  1530 000038A7 B8[0A180000]            mov eax, font_z_R
  1531 000038AC 50                      push eax
  1532 000038AD 58                      pop eax
  1533 000038AE 5D                      pop ebp
  1534 000038AF 50                      push eax
  1535 000038B0 55                      push ebp
  1536 000038B1 C3                      ret
  1537 000038B2 EB00                    jmp font_z_getAddrByAscii_if$19_end
  1538                                  font_z_getAddrByAscii_if$19_else:
  1539                                  font_z_getAddrByAscii_if$19_end:
  1540                                  ;if end
  1541                                  ; if start
  1542                                  font_z_getAddrByAscii_if$20_start:
  1543 000038B4 A1[F2340000]            mov eax, [font_z_getAddrByAscii_ascii]
  1544 000038B9 50                      push eax
  1545 000038BA B853000000              mov eax, 83
  1546 000038BF 50                      push eax
  1547 000038C0 5B                      pop ebx
  1548 000038C1 58                      pop eax
  1549 000038C2 39D8                    cmp eax, ebx
  1550 000038C4 7407                    je font_z_getAddrByAscii_if$20_equal@true$20
  1551 000038C6 B800000000              mov eax, 0
  1552 000038CB EB05                    jmp font_z_getAddrByAscii_if$20_equal@false$20
  1553                                  font_z_getAddrByAscii_if$20_equal@true$20:
  1554 000038CD B801000000              mov eax, 1
  1555                                  font_z_getAddrByAscii_if$20_equal@false$20:
  1556 000038D2 50                      push eax
  1557 000038D3 58                      pop eax
  1558 000038D4 83F800                  cmp eax, 0
  1559 000038D7 740D                    je font_z_getAddrByAscii_if$20_else
  1560                                  font_z_getAddrByAscii_if$20_then:
  1561 000038D9 B8[0F190000]            mov eax, font_z_S
  1562 000038DE 50                      push eax
  1563 000038DF 58                      pop eax
  1564 000038E0 5D                      pop ebp
  1565 000038E1 50                      push eax
  1566 000038E2 55                      push ebp
  1567 000038E3 C3                      ret
  1568 000038E4 EB00                    jmp font_z_getAddrByAscii_if$20_end
  1569                                  font_z_getAddrByAscii_if$20_else:
  1570                                  font_z_getAddrByAscii_if$20_end:
  1571                                  ;if end
  1572                                  ; if start
  1573                                  font_z_getAddrByAscii_if$21_start:
  1574 000038E6 A1[F2340000]            mov eax, [font_z_getAddrByAscii_ascii]
  1575 000038EB 50                      push eax
  1576 000038EC B854000000              mov eax, 84
  1577 000038F1 50                      push eax
  1578 000038F2 5B                      pop ebx
  1579 000038F3 58                      pop eax
  1580 000038F4 39D8                    cmp eax, ebx
  1581 000038F6 7407                    je font_z_getAddrByAscii_if$21_equal@true$21
  1582 000038F8 B800000000              mov eax, 0
  1583 000038FD EB05                    jmp font_z_getAddrByAscii_if$21_equal@false$21
  1584                                  font_z_getAddrByAscii_if$21_equal@true$21:
  1585 000038FF B801000000              mov eax, 1
  1586                                  font_z_getAddrByAscii_if$21_equal@false$21:
  1587 00003904 50                      push eax
  1588 00003905 58                      pop eax
  1589 00003906 83F800                  cmp eax, 0
  1590 00003909 740D                    je font_z_getAddrByAscii_if$21_else
  1591                                  font_z_getAddrByAscii_if$21_then:
  1592 0000390B B8[141A0000]            mov eax, font_z_T
  1593 00003910 50                      push eax
  1594 00003911 58                      pop eax
  1595 00003912 5D                      pop ebp
  1596 00003913 50                      push eax
  1597 00003914 55                      push ebp
  1598 00003915 C3                      ret
  1599 00003916 EB00                    jmp font_z_getAddrByAscii_if$21_end
  1600                                  font_z_getAddrByAscii_if$21_else:
  1601                                  font_z_getAddrByAscii_if$21_end:
  1602                                  ;if end
  1603                                  ; if start
  1604                                  font_z_getAddrByAscii_if$22_start:
  1605 00003918 A1[F2340000]            mov eax, [font_z_getAddrByAscii_ascii]
  1606 0000391D 50                      push eax
  1607 0000391E B855000000              mov eax, 85
  1608 00003923 50                      push eax
  1609 00003924 5B                      pop ebx
  1610 00003925 58                      pop eax
  1611 00003926 39D8                    cmp eax, ebx
  1612 00003928 7407                    je font_z_getAddrByAscii_if$22_equal@true$22
  1613 0000392A B800000000              mov eax, 0
  1614 0000392F EB05                    jmp font_z_getAddrByAscii_if$22_equal@false$22
  1615                                  font_z_getAddrByAscii_if$22_equal@true$22:
  1616 00003931 B801000000              mov eax, 1
  1617                                  font_z_getAddrByAscii_if$22_equal@false$22:
  1618 00003936 50                      push eax
  1619 00003937 58                      pop eax
  1620 00003938 83F800                  cmp eax, 0
  1621 0000393B 740D                    je font_z_getAddrByAscii_if$22_else
  1622                                  font_z_getAddrByAscii_if$22_then:
  1623 0000393D B8[191B0000]            mov eax, font_z_U
  1624 00003942 50                      push eax
  1625 00003943 58                      pop eax
  1626 00003944 5D                      pop ebp
  1627 00003945 50                      push eax
  1628 00003946 55                      push ebp
  1629 00003947 C3                      ret
  1630 00003948 EB00                    jmp font_z_getAddrByAscii_if$22_end
  1631                                  font_z_getAddrByAscii_if$22_else:
  1632                                  font_z_getAddrByAscii_if$22_end:
  1633                                  ;if end
  1634                                  ; if start
  1635                                  font_z_getAddrByAscii_if$23_start:
  1636 0000394A A1[F2340000]            mov eax, [font_z_getAddrByAscii_ascii]
  1637 0000394F 50                      push eax
  1638 00003950 B856000000              mov eax, 86
  1639 00003955 50                      push eax
  1640 00003956 5B                      pop ebx
  1641 00003957 58                      pop eax
  1642 00003958 39D8                    cmp eax, ebx
  1643 0000395A 7407                    je font_z_getAddrByAscii_if$23_equal@true$23
  1644 0000395C B800000000              mov eax, 0
  1645 00003961 EB05                    jmp font_z_getAddrByAscii_if$23_equal@false$23
  1646                                  font_z_getAddrByAscii_if$23_equal@true$23:
  1647 00003963 B801000000              mov eax, 1
  1648                                  font_z_getAddrByAscii_if$23_equal@false$23:
  1649 00003968 50                      push eax
  1650 00003969 58                      pop eax
  1651 0000396A 83F800                  cmp eax, 0
  1652 0000396D 740D                    je font_z_getAddrByAscii_if$23_else
  1653                                  font_z_getAddrByAscii_if$23_then:
  1654 0000396F B8[1E1C0000]            mov eax, font_z_V
  1655 00003974 50                      push eax
  1656 00003975 58                      pop eax
  1657 00003976 5D                      pop ebp
  1658 00003977 50                      push eax
  1659 00003978 55                      push ebp
  1660 00003979 C3                      ret
  1661 0000397A EB00                    jmp font_z_getAddrByAscii_if$23_end
  1662                                  font_z_getAddrByAscii_if$23_else:
  1663                                  font_z_getAddrByAscii_if$23_end:
  1664                                  ;if end
  1665                                  ; if start
  1666                                  font_z_getAddrByAscii_if$24_start:
  1667 0000397C A1[F2340000]            mov eax, [font_z_getAddrByAscii_ascii]
  1668 00003981 50                      push eax
  1669 00003982 B857000000              mov eax, 87
  1670 00003987 50                      push eax
  1671 00003988 5B                      pop ebx
  1672 00003989 58                      pop eax
  1673 0000398A 39D8                    cmp eax, ebx
  1674 0000398C 7407                    je font_z_getAddrByAscii_if$24_equal@true$24
  1675 0000398E B800000000              mov eax, 0
  1676 00003993 EB05                    jmp font_z_getAddrByAscii_if$24_equal@false$24
  1677                                  font_z_getAddrByAscii_if$24_equal@true$24:
  1678 00003995 B801000000              mov eax, 1
  1679                                  font_z_getAddrByAscii_if$24_equal@false$24:
  1680 0000399A 50                      push eax
  1681 0000399B 58                      pop eax
  1682 0000399C 83F800                  cmp eax, 0
  1683 0000399F 740D                    je font_z_getAddrByAscii_if$24_else
  1684                                  font_z_getAddrByAscii_if$24_then:
  1685 000039A1 B8[231D0000]            mov eax, font_z_W
  1686 000039A6 50                      push eax
  1687 000039A7 58                      pop eax
  1688 000039A8 5D                      pop ebp
  1689 000039A9 50                      push eax
  1690 000039AA 55                      push ebp
  1691 000039AB C3                      ret
  1692 000039AC EB00                    jmp font_z_getAddrByAscii_if$24_end
  1693                                  font_z_getAddrByAscii_if$24_else:
  1694                                  font_z_getAddrByAscii_if$24_end:
  1695                                  ;if end
  1696                                  ; if start
  1697                                  font_z_getAddrByAscii_if$25_start:
  1698 000039AE A1[F2340000]            mov eax, [font_z_getAddrByAscii_ascii]
  1699 000039B3 50                      push eax
  1700 000039B4 B858000000              mov eax, 88
  1701 000039B9 50                      push eax
  1702 000039BA 5B                      pop ebx
  1703 000039BB 58                      pop eax
  1704 000039BC 39D8                    cmp eax, ebx
  1705 000039BE 7407                    je font_z_getAddrByAscii_if$25_equal@true$25
  1706 000039C0 B800000000              mov eax, 0
  1707 000039C5 EB05                    jmp font_z_getAddrByAscii_if$25_equal@false$25
  1708                                  font_z_getAddrByAscii_if$25_equal@true$25:
  1709 000039C7 B801000000              mov eax, 1
  1710                                  font_z_getAddrByAscii_if$25_equal@false$25:
  1711 000039CC 50                      push eax
  1712 000039CD 58                      pop eax
  1713 000039CE 83F800                  cmp eax, 0
  1714 000039D1 740D                    je font_z_getAddrByAscii_if$25_else
  1715                                  font_z_getAddrByAscii_if$25_then:
  1716 000039D3 B8[281E0000]            mov eax, font_z_X
  1717 000039D8 50                      push eax
  1718 000039D9 58                      pop eax
  1719 000039DA 5D                      pop ebp
  1720 000039DB 50                      push eax
  1721 000039DC 55                      push ebp
  1722 000039DD C3                      ret
  1723 000039DE EB00                    jmp font_z_getAddrByAscii_if$25_end
  1724                                  font_z_getAddrByAscii_if$25_else:
  1725                                  font_z_getAddrByAscii_if$25_end:
  1726                                  ;if end
  1727                                  ; if start
  1728                                  font_z_getAddrByAscii_if$26_start:
  1729 000039E0 A1[F2340000]            mov eax, [font_z_getAddrByAscii_ascii]
  1730 000039E5 50                      push eax
  1731 000039E6 B859000000              mov eax, 89
  1732 000039EB 50                      push eax
  1733 000039EC 5B                      pop ebx
  1734 000039ED 58                      pop eax
  1735 000039EE 39D8                    cmp eax, ebx
  1736 000039F0 7407                    je font_z_getAddrByAscii_if$26_equal@true$26
  1737 000039F2 B800000000              mov eax, 0
  1738 000039F7 EB05                    jmp font_z_getAddrByAscii_if$26_equal@false$26
  1739                                  font_z_getAddrByAscii_if$26_equal@true$26:
  1740 000039F9 B801000000              mov eax, 1
  1741                                  font_z_getAddrByAscii_if$26_equal@false$26:
  1742 000039FE 50                      push eax
  1743 000039FF 58                      pop eax
  1744 00003A00 83F800                  cmp eax, 0
  1745 00003A03 740D                    je font_z_getAddrByAscii_if$26_else
  1746                                  font_z_getAddrByAscii_if$26_then:
  1747 00003A05 B8[2D1F0000]            mov eax, font_z_Y
  1748 00003A0A 50                      push eax
  1749 00003A0B 58                      pop eax
  1750 00003A0C 5D                      pop ebp
  1751 00003A0D 50                      push eax
  1752 00003A0E 55                      push ebp
  1753 00003A0F C3                      ret
  1754 00003A10 EB00                    jmp font_z_getAddrByAscii_if$26_end
  1755                                  font_z_getAddrByAscii_if$26_else:
  1756                                  font_z_getAddrByAscii_if$26_end:
  1757                                  ;if end
  1758                                  ; if start
  1759                                  font_z_getAddrByAscii_if$27_start:
  1760 00003A12 A1[F2340000]            mov eax, [font_z_getAddrByAscii_ascii]
  1761 00003A17 50                      push eax
  1762 00003A18 B85A000000              mov eax, 90
  1763 00003A1D 50                      push eax
  1764 00003A1E 5B                      pop ebx
  1765 00003A1F 58                      pop eax
  1766 00003A20 39D8                    cmp eax, ebx
  1767 00003A22 7407                    je font_z_getAddrByAscii_if$27_equal@true$27
  1768 00003A24 B800000000              mov eax, 0
  1769 00003A29 EB05                    jmp font_z_getAddrByAscii_if$27_equal@false$27
  1770                                  font_z_getAddrByAscii_if$27_equal@true$27:
  1771 00003A2B B801000000              mov eax, 1
  1772                                  font_z_getAddrByAscii_if$27_equal@false$27:
  1773 00003A30 50                      push eax
  1774 00003A31 58                      pop eax
  1775 00003A32 83F800                  cmp eax, 0
  1776 00003A35 740D                    je font_z_getAddrByAscii_if$27_else
  1777                                  font_z_getAddrByAscii_if$27_then:
  1778 00003A37 B8[32200000]            mov eax, font_z_Z
  1779 00003A3C 50                      push eax
  1780 00003A3D 58                      pop eax
  1781 00003A3E 5D                      pop ebp
  1782 00003A3F 50                      push eax
  1783 00003A40 55                      push ebp
  1784 00003A41 C3                      ret
  1785 00003A42 EB00                    jmp font_z_getAddrByAscii_if$27_end
  1786                                  font_z_getAddrByAscii_if$27_else:
  1787                                  font_z_getAddrByAscii_if$27_end:
  1788                                  ;if end
  1789 00003A44 C3                      ret
  1790                                  font_z_getAddrByAscii$next:
  1791                                  
  1792                                  ;function
  1793 00003A45 E91C010000              jmp test_z_rect$next
  1794                                  test_z_rect:
  1795                                  ;param
  1796 00003A4A EB04                    jmp test_z_rect_left$next
  1797 00003A4C 00000000                test_z_rect_left: dd 0
  1798                                  test_z_rect_left$next:
  1799                                  ;param
  1800 00003A50 EB04                    jmp test_z_rect_top$next
  1801 00003A52 00000000                test_z_rect_top: dd 0
  1802                                  test_z_rect_top$next:
  1803                                  ;param
  1804 00003A56 EB04                    jmp test_z_rect_addrVram$next
  1805 00003A58 00000000                test_z_rect_addrVram: dd 0
  1806                                  test_z_rect_addrVram$next:
  1807 00003A5C 5D                      pop ebp
  1808 00003A5D 58                      pop eax
  1809 00003A5E A3[583A0000]            mov [test_z_rect_addrVram], eax
  1810 00003A63 58                      pop eax
  1811 00003A64 A3[523A0000]            mov [test_z_rect_top], eax
  1812 00003A69 58                      pop eax
  1813 00003A6A A3[4C3A0000]            mov [test_z_rect_left], eax
  1814 00003A6F 55                      push ebp
  1815 00003A70 B800000000              mov eax, 0
  1816 00003A75 50                      push eax
  1817 00003A76 EB04                    jmp test_z_rect_x$next
  1818 00003A78 00000000                test_z_rect_x: dd 0
  1819                                  test_z_rect_x$next:
  1820 00003A7C 58                      pop eax
  1821 00003A7D A3[783A0000]            mov [test_z_rect_x], eax
  1822 00003A82 B800000000              mov eax, 0
  1823 00003A87 50                      push eax
  1824 00003A88 EB04                    jmp test_z_rect_y$next
  1825 00003A8A 00000000                test_z_rect_y: dd 0
  1826                                  test_z_rect_y$next:
  1827 00003A8E 58                      pop eax
  1828 00003A8F A3[8A3A0000]            mov [test_z_rect_y], eax
  1829                                  ; while start
  1830                                  test_z_rect_while$1_start:
  1831 00003A94 A1[8A3A0000]            mov eax, [test_z_rect_y]
  1832 00003A99 50                      push eax
  1833 00003A9A B808000000              mov eax, 8
  1834 00003A9F 50                      push eax
  1835 00003AA0 5B                      pop ebx
  1836 00003AA1 58                      pop eax
  1837 00003AA2 39D8                    cmp eax, ebx
  1838 00003AA4 7607                    jbe test_z_rect_while$1_lessequal@true$1
  1839 00003AA6 B800000000              mov eax, 0
  1840 00003AAB EB05                    jmp test_z_rect_while$1_lessequal@false$1
  1841                                  test_z_rect_while$1_lessequal@true$1:
  1842 00003AAD B801000000              mov eax, 1
  1843                                  test_z_rect_while$1_lessequal@false$1:
  1844 00003AB2 50                      push eax
  1845 00003AB3 58                      pop eax
  1846 00003AB4 83F800                  cmp eax, 0
  1847 00003AB7 0F84A8000000            je test_z_rect_while$1_end
  1848                                  ; while start
  1849                                  test_z_rect_while$1_while$1_start:
  1850 00003ABD A1[783A0000]            mov eax, [test_z_rect_x]
  1851 00003AC2 50                      push eax
  1852 00003AC3 B808000000              mov eax, 8
  1853 00003AC8 50                      push eax
  1854 00003AC9 5B                      pop ebx
  1855 00003ACA 58                      pop eax
  1856 00003ACB 39D8                    cmp eax, ebx
  1857 00003ACD 7607                    jbe test_z_rect_while$1_while$1_lessequal@true$2
  1858 00003ACF B800000000              mov eax, 0
  1859 00003AD4 EB05                    jmp test_z_rect_while$1_while$1_lessequal@false$2
  1860                                  test_z_rect_while$1_while$1_lessequal@true$2:
  1861 00003AD6 B801000000              mov eax, 1
  1862                                  test_z_rect_while$1_while$1_lessequal@false$2:
  1863 00003ADB 50                      push eax
  1864 00003ADC 58                      pop eax
  1865 00003ADD 83F800                  cmp eax, 0
  1866 00003AE0 7467                    je test_z_rect_while$1_while$1_end
  1867 00003AE2 B803000000              mov eax, 3
  1868 00003AE7 50                      push eax
  1869 00003AE8 EB04                    jmp test_z_rect_while$1_while$1_color$next
  1870 00003AEA 00000000                test_z_rect_while$1_while$1_color: dd 0
  1871                                  test_z_rect_while$1_while$1_color$next:
  1872 00003AEE 58                      pop eax
  1873 00003AEF A3[EA3A0000]            mov [test_z_rect_while$1_while$1_color], eax
  1874 00003AF4 A1[4C3A0000]            mov eax, [test_z_rect_left]
  1875 00003AF9 50                      push eax
  1876 00003AFA A1[783A0000]            mov eax, [test_z_rect_x]
  1877 00003AFF 50                      push eax
  1878 00003B00 58                      pop eax
  1879 00003B01 5B                      pop ebx
  1880 00003B02 01D8                    add eax, ebx
  1881 00003B04 50                      push eax
  1882 00003B05 A1[523A0000]            mov eax, [test_z_rect_top]
  1883 00003B0A 50                      push eax
  1884 00003B0B A1[8A3A0000]            mov eax, [test_z_rect_y]
  1885 00003B10 50                      push eax
  1886 00003B11 58                      pop eax
  1887 00003B12 5B                      pop ebx
  1888 00003B13 01D8                    add eax, ebx
  1889 00003B15 50                      push eax
  1890 00003B16 A1[EA3A0000]            mov eax, [test_z_rect_while$1_while$1_color]
  1891 00003B1B 50                      push eax
  1892 00003B1C B840010000              mov eax, 320
  1893 00003B21 50                      push eax
  1894 00003B22 A1[583A0000]            mov eax, [test_z_rect_addrVram]
  1895 00003B27 50                      push eax
  1896 00003B28 E8CCC5FFFF              call draw_z_pixel
  1897 00003B2D A1[783A0000]            mov eax, [test_z_rect_x]
  1898 00003B32 50                      push eax
  1899 00003B33 B801000000              mov eax, 1
  1900 00003B38 50                      push eax
  1901 00003B39 58                      pop eax
  1902 00003B3A 5B                      pop ebx
  1903 00003B3B 01D8                    add eax, ebx
  1904 00003B3D 50                      push eax
  1905 00003B3E 58                      pop eax
  1906 00003B3F A3[783A0000]            mov [test_z_rect_x], eax
  1907 00003B44 E974FFFFFF              jmp test_z_rect_while$1_while$1_start
  1908                                  test_z_rect_while$1_while$1_end:
  1909                                  ;while end
  1910 00003B49 A1[8A3A0000]            mov eax, [test_z_rect_y]
  1911 00003B4E 50                      push eax
  1912 00003B4F B801000000              mov eax, 1
  1913 00003B54 50                      push eax
  1914 00003B55 58                      pop eax
  1915 00003B56 5B                      pop ebx
  1916 00003B57 01D8                    add eax, ebx
  1917 00003B59 50                      push eax
  1918 00003B5A 58                      pop eax
  1919 00003B5B A3[8A3A0000]            mov [test_z_rect_y], eax
  1920 00003B60 E92FFFFFFF              jmp test_z_rect_while$1_start
  1921                                  test_z_rect_while$1_end:
  1922                                  ;while end
  1923 00003B65 C3                      ret
  1924                                  test_z_rect$next:
  1925                                  
  1926                                  ;function
  1927 00003B66 E982000000              jmp test_z_block$next
  1928                                  test_z_block:
  1929                                  ;param
  1930 00003B6B EB04                    jmp test_z_block_addrVram$next
  1931 00003B6D 00000000                test_z_block_addrVram: dd 0
  1932                                  test_z_block_addrVram$next:
  1933 00003B71 5D                      pop ebp
  1934 00003B72 58                      pop eax
  1935 00003B73 A3[6D3B0000]            mov [test_z_block_addrVram], eax
  1936 00003B78 55                      push ebp
  1937 00003B79 B800000000              mov eax, 0
  1938 00003B7E 50                      push eax
  1939 00003B7F EB04                    jmp test_z_block_i$next
  1940 00003B81 00000000                test_z_block_i: dd 0
  1941                                  test_z_block_i$next:
  1942 00003B85 58                      pop eax
  1943 00003B86 A3[813B0000]            mov [test_z_block_i], eax
  1944                                  ; while start
  1945                                  test_z_block_while$1_start:
  1946 00003B8B A1[813B0000]            mov eax, [test_z_block_i]
  1947 00003B90 50                      push eax
  1948 00003B91 B82C010000              mov eax, 300
  1949 00003B96 50                      push eax
  1950 00003B97 5B                      pop ebx
  1951 00003B98 58                      pop eax
  1952 00003B99 39D8                    cmp eax, ebx
  1953 00003B9B 7207                    jb test_z_block_while$1_less@true$3
  1954 00003B9D B800000000              mov eax, 0
  1955 00003BA2 EB05                    jmp test_z_block_while$1_less@false$3
  1956                                  test_z_block_while$1_less@true$3:
  1957 00003BA4 B801000000              mov eax, 1
  1958                                  test_z_block_while$1_less@false$3:
  1959 00003BA9 50                      push eax
  1960 00003BAA 58                      pop eax
  1961 00003BAB 83F800                  cmp eax, 0
  1962 00003BAE 743C                    je test_z_block_while$1_end
  1963 00003BB0 A1[813B0000]            mov eax, [test_z_block_i]
  1964 00003BB5 50                      push eax
  1965 00003BB6 A1[813B0000]            mov eax, [test_z_block_i]
  1966 00003BBB 50                      push eax
  1967 00003BBC A1[813B0000]            mov eax, [test_z_block_i]
  1968 00003BC1 50                      push eax
  1969 00003BC2 B840010000              mov eax, 320
  1970 00003BC7 50                      push eax
  1971 00003BC8 A1[6D3B0000]            mov eax, [test_z_block_addrVram]
  1972 00003BCD 50                      push eax
  1973 00003BCE E826C5FFFF              call draw_z_pixel
  1974 00003BD3 A1[813B0000]            mov eax, [test_z_block_i]
  1975 00003BD8 50                      push eax
  1976 00003BD9 B801000000              mov eax, 1
  1977 00003BDE 50                      push eax
  1978 00003BDF 58                      pop eax
  1979 00003BE0 5B                      pop ebx
  1980 00003BE1 01D8                    add eax, ebx
  1981 00003BE3 50                      push eax
  1982 00003BE4 58                      pop eax
  1983 00003BE5 A3[813B0000]            mov [test_z_block_i], eax
  1984 00003BEA EB9F                    jmp test_z_block_while$1_start
  1985                                  test_z_block_while$1_end:
  1986                                  ;while end
  1987 00003BEC C3                      ret
  1988                                  test_z_block$next:
  1989                                  
  1990                                  ;function
  1991 00003BED EB4C                    jmp test_z_draw$next
  1992                                  test_z_draw:
  1993                                  ;param
  1994 00003BEF EB04                    jmp test_z_draw_addrVram$next
  1995 00003BF1 00000000                test_z_draw_addrVram: dd 0
  1996                                  test_z_draw_addrVram$next:
  1997 00003BF5 5D                      pop ebp
  1998 00003BF6 58                      pop eax
  1999 00003BF7 A3[F13B0000]            mov [test_z_draw_addrVram], eax
  2000 00003BFC 55                      push ebp
  2001 00003BFD A1[F13B0000]            mov eax, [test_z_draw_addrVram]
  2002 00003C02 50                      push eax
  2003 00003C03 E863FFFFFF              call test_z_block
  2004 00003C08 EB30                    jmp test_z_draw_tstr$next
  2005 00003C0A 48000000450000004C-     test_z_draw_tstr: dd 72, 69, 76, 76, 79, 32, 87, 79, 82, 76, 68, 0
  2005 00003C13 0000004C0000004F00-
  2005 00003C1C 000020000000570000-
  2005 00003C25 004F00000052000000-
  2005 00003C2E 4C0000004400000000-
  2005 00003C37 000000             
  2007                                  test_z_draw_tstr$next:
  2008 00003C3A C3                      ret
  2009                                  test_z_draw$next:
  2010 00003C3B EB18                    jmp main
  2011                                  
  2012                                  ; 
  2013                                  ; kernel.z\setMem.1byte(val:dword, addr:dword)
  2014                                  kernel_z_setMem_1byte:
  2015 00003C3D 5D                        pop ebp
  2016 00003C3E 5B                        pop ebx
  2017 00003C3F 58                        pop eax
  2018 00003C40 55                        push ebp
  2019 00003C41 8803                      mov [ebx], al
  2020 00003C43 C3                      ret
  2021                                  
  2022                                  ; kernel.z\setMem.2byte(val:dword, addr:dword)
  2023                                  kernel_z_setMem_2byte:
  2024 00003C44 5D                        pop ebp
  2025 00003C45 5B                        pop ebx
  2026 00003C46 58                        pop eax
  2027 00003C47 55                        push ebp
  2028 00003C48 668903                    mov [ebx], ax
  2029 00003C4B C3                      ret
  2030                                  
  2031                                  ; kernel.z\setMem.4byte(val:dword, addr:dword)
  2032                                  kernel_z_setMem_4byte:
  2033 00003C4C 5D                        pop ebp
  2034 00003C4D 5B                        pop ebx
  2035 00003C4E 58                        pop eax
  2036 00003C4F 55                        push ebp
  2037 00003C50 8903                      mov [ebx], eax
  2038 00003C52 C3                      ret
  2039                                  
  2040                                  ; kernel.z\halt()
  2041                                  kernel_z_halt:
  2042 00003C53 F4                        hlt
  2043 00003C54 C3                      ret
  2044                                  
  2045                                  main:
  2046 00003C55 E826C4FFFF                call main_z_run_once
  2047                                    .loop:
  2048 00003C5A E831C4FFFF                  call main_z_run_loop
  2049 00003C5F EBF9                      jmp .loop
  2050                                  
