     1                                  [bits 32]
     2                                  ORG 0x280000
     3 00000000 B840010000              mov eax, 320
     4 00000005 50                      push eax
     5 00000006 EB04                    jmp main_z_screenWidth$next
     6 00000008 00000000                main_z_screenWidth: dd 0
     7                                  main_z_screenWidth$next:
     8 0000000C 58                      pop eax
     9 0000000D A3[08000000]            mov [main_z_screenWidth], eax
    10 00000012 B8C8000000              mov eax, 200
    11 00000017 50                      push eax
    12 00000018 EB04                    jmp main_z_screenHeight$next
    13 0000001A 00000000                main_z_screenHeight: dd 0
    14                                  main_z_screenHeight$next:
    15 0000001E 58                      pop eax
    16 0000001F A3[1A000000]            mov [main_z_screenHeight], eax
    17 00000024 B800000A00              mov eax, 0x000a0000
    18 00000029 50                      push eax
    19 0000002A EB04                    jmp main_z_addrVram$next
    20 0000002C 00000000                main_z_addrVram: dd 0
    21                                  main_z_addrVram$next:
    22 00000030 58                      pop eax
    23 00000031 A3[2C000000]            mov [main_z_addrVram], eax
    24 00000036 B800E02400              mov eax, 0x0024e000
    25 0000003B 50                      push eax
    26 0000003C EB04                    jmp main_z_addrPM$next
    27 0000003E 00000000                main_z_addrPM: dd 0
    28                                  main_z_addrPM$next:
    29 00000042 58                      pop eax
    30 00000043 A3[3E000000]            mov [main_z_addrPM], eax
    31 00000048 B800E02600              mov eax, 0x0026e000
    32 0000004D 50                      push eax
    33 0000004E EB04                    jmp main_z_addrPDT$next
    34 00000050 00000000                main_z_addrPDT: dd 0
    35                                  main_z_addrPDT$next:
    36 00000054 58                      pop eax
    37 00000055 A3[50000000]            mov [main_z_addrPDT], eax
    38 0000005A B800F82600              mov eax, 0x0026f800
    39 0000005F 50                      push eax
    40 00000060 EB04                    jmp main_z_addrIDT$next
    41 00000062 00000000                main_z_addrIDT: dd 0
    42                                  main_z_addrIDT$next:
    43 00000066 58                      pop eax
    44 00000067 A3[62000000]            mov [main_z_addrIDT], eax
    45 0000006C B800002700              mov eax, 0x00270000
    46 00000071 50                      push eax
    47 00000072 EB04                    jmp main_z_addrGDT$next
    48 00000074 00000000                main_z_addrGDT: dd 0
    49                                  main_z_addrGDT$next:
    50 00000078 58                      pop eax
    51 00000079 A3[74000000]            mov [main_z_addrGDT], eax
    52                                  
    53                                  ;function
    54 0000007E EB0E                    jmp main_z_run_once$next
    55                                  main_z_run_once:
    56 00000080 5D                      pop ebp
    57 00000081 55                      push ebp
    58 00000082 A1[2C000000]            mov eax, [main_z_addrVram]
    59 00000087 50                      push eax
    60 00000088 E8B0320000              call test_z_draw
    61 0000008D C3                      ret
    62                                  main_z_run_once$next:
    63                                  
    64                                  ;function
    65 0000008E EB08                    jmp main_z_run_loop$next
    66                                  main_z_run_loop:
    67 00000090 5D                      pop ebp
    68 00000091 55                      push ebp
    69 00000092 E854340000              call kernel_z_halt
    70 00000097 C3                      ret
    71                                  main_z_run_loop$next:
    72                                  
    73                                  ;function
    74 00000098 EB2C                    jmp memory_z_set_1byte$next
    75                                  memory_z_set_1byte:
    76                                  ;param
    77 0000009A EB04                    jmp memory_z_set_1byte_val$next
    78 0000009C 00000000                memory_z_set_1byte_val: dd 0
    79                                  memory_z_set_1byte_val$next:
    80                                  ;param
    81 000000A0 EB04                    jmp memory_z_set_1byte_addr$next
    82 000000A2 00000000                memory_z_set_1byte_addr: dd 0
    83                                  memory_z_set_1byte_addr$next:
    84 000000A6 5D                      pop ebp
    85 000000A7 58                      pop eax
    86 000000A8 A3[A2000000]            mov [memory_z_set_1byte_addr], eax
    87 000000AD 58                      pop eax
    88 000000AE A3[9C000000]            mov [memory_z_set_1byte_val], eax
    89 000000B3 55                      push ebp
    90 000000B4 A1[9C000000]            mov eax, [memory_z_set_1byte_val]
    91 000000B9 50                      push eax
    92 000000BA A1[A2000000]            mov eax, [memory_z_set_1byte_addr]
    93 000000BF 50                      push eax
    94 000000C0 E810340000              call kernel_z_setMem_1byte
    95 000000C5 C3                      ret
    96                                  memory_z_set_1byte$next:
    97                                  
    98                                  ;function
    99 000000C6 EB2C                    jmp memory_z_set_2byte$next
   100                                  memory_z_set_2byte:
   101                                  ;param
   102 000000C8 EB04                    jmp memory_z_set_2byte_val$next
   103 000000CA 00000000                memory_z_set_2byte_val: dd 0
   104                                  memory_z_set_2byte_val$next:
   105                                  ;param
   106 000000CE EB04                    jmp memory_z_set_2byte_addr$next
   107 000000D0 00000000                memory_z_set_2byte_addr: dd 0
   108                                  memory_z_set_2byte_addr$next:
   109 000000D4 5D                      pop ebp
   110 000000D5 58                      pop eax
   111 000000D6 A3[D0000000]            mov [memory_z_set_2byte_addr], eax
   112 000000DB 58                      pop eax
   113 000000DC A3[CA000000]            mov [memory_z_set_2byte_val], eax
   114 000000E1 55                      push ebp
   115 000000E2 A1[CA000000]            mov eax, [memory_z_set_2byte_val]
   116 000000E7 50                      push eax
   117 000000E8 A1[D0000000]            mov eax, [memory_z_set_2byte_addr]
   118 000000ED 50                      push eax
   119 000000EE E8E9330000              call kernel_z_setMem_2byte
   120 000000F3 C3                      ret
   121                                  memory_z_set_2byte$next:
   122                                  
   123                                  ;function
   124 000000F4 E983000000              jmp draw_z_pixel$next
   125                                  draw_z_pixel:
   126                                  ;param
   127 000000F9 EB04                    jmp draw_z_pixel_x$next
   128 000000FB 00000000                draw_z_pixel_x: dd 0
   129                                  draw_z_pixel_x$next:
   130                                  ;param
   131 000000FF EB04                    jmp draw_z_pixel_y$next
   132 00000101 00000000                draw_z_pixel_y: dd 0
   133                                  draw_z_pixel_y$next:
   134                                  ;param
   135 00000105 EB04                    jmp draw_z_pixel_color$next
   136 00000107 00000000                draw_z_pixel_color: dd 0
   137                                  draw_z_pixel_color$next:
   138                                  ;param
   139 0000010B EB04                    jmp draw_z_pixel_screenWidth$next
   140 0000010D 00000000                draw_z_pixel_screenWidth: dd 0
   141                                  draw_z_pixel_screenWidth$next:
   142                                  ;param
   143 00000111 EB04                    jmp draw_z_pixel_vramAddr$next
   144 00000113 00000000                draw_z_pixel_vramAddr: dd 0
   145                                  draw_z_pixel_vramAddr$next:
   146 00000117 5D                      pop ebp
   147 00000118 58                      pop eax
   148 00000119 A3[13010000]            mov [draw_z_pixel_vramAddr], eax
   149 0000011E 58                      pop eax
   150 0000011F A3[0D010000]            mov [draw_z_pixel_screenWidth], eax
   151 00000124 58                      pop eax
   152 00000125 A3[07010000]            mov [draw_z_pixel_color], eax
   153 0000012A 58                      pop eax
   154 0000012B A3[01010000]            mov [draw_z_pixel_y], eax
   155 00000130 58                      pop eax
   156 00000131 A3[FB000000]            mov [draw_z_pixel_x], eax
   157 00000136 55                      push ebp
   158 00000137 A1[01010000]            mov eax, [draw_z_pixel_y]
   159 0000013C 50                      push eax
   160 0000013D A1[0D010000]            mov eax, [draw_z_pixel_screenWidth]
   161 00000142 50                      push eax
   162 00000143 58                      pop eax
   163 00000144 5B                      pop ebx
   164 00000145 F7E3                    mul ebx
   165 00000147 50                      push eax
   166 00000148 A1[FB000000]            mov eax, [draw_z_pixel_x]
   167 0000014D 50                      push eax
   168 0000014E 58                      pop eax
   169 0000014F 5B                      pop ebx
   170 00000150 01D8                    add eax, ebx
   171 00000152 50                      push eax
   172 00000153 A1[13010000]            mov eax, [draw_z_pixel_vramAddr]
   173 00000158 50                      push eax
   174 00000159 58                      pop eax
   175 0000015A 5B                      pop ebx
   176 0000015B 01D8                    add eax, ebx
   177 0000015D 50                      push eax
   178 0000015E EB04                    jmp draw_z_pixel_addr$next
   179 00000160 00000000                draw_z_pixel_addr: dd 0
   180                                  draw_z_pixel_addr$next:
   181 00000164 58                      pop eax
   182 00000165 A3[60010000]            mov [draw_z_pixel_addr], eax
   183 0000016A A1[07010000]            mov eax, [draw_z_pixel_color]
   184 0000016F 50                      push eax
   185 00000170 A1[60010000]            mov eax, [draw_z_pixel_addr]
   186 00000175 50                      push eax
   187 00000176 E81FFFFFFF              call memory_z_set_1byte
   188 0000017B C3                      ret
   189                                  draw_z_pixel$next:
   190                                  
   191                                  ;function
   192 0000017C E9CA000000              jmp draw_z_hLine$next
   193                                  draw_z_hLine:
   194                                  ;param
   195 00000181 EB04                    jmp draw_z_hLine_bx$next
   196 00000183 00000000                draw_z_hLine_bx: dd 0
   197                                  draw_z_hLine_bx$next:
   198                                  ;param
   199 00000187 EB04                    jmp draw_z_hLine_by$next
   200 00000189 00000000                draw_z_hLine_by: dd 0
   201                                  draw_z_hLine_by$next:
   202                                  ;param
   203 0000018D EB04                    jmp draw_z_hLine_ex$next
   204 0000018F 00000000                draw_z_hLine_ex: dd 0
   205                                  draw_z_hLine_ex$next:
   206                                  ;param
   207 00000193 EB04                    jmp draw_z_hLine_ey$next
   208 00000195 00000000                draw_z_hLine_ey: dd 0
   209                                  draw_z_hLine_ey$next:
   210                                  ;param
   211 00000199 EB04                    jmp draw_z_hLine_color$next
   212 0000019B 00000000                draw_z_hLine_color: dd 0
   213                                  draw_z_hLine_color$next:
   214                                  ;param
   215 0000019F EB04                    jmp draw_z_hLine_screenWidth$next
   216 000001A1 00000000                draw_z_hLine_screenWidth: dd 0
   217                                  draw_z_hLine_screenWidth$next:
   218                                  ;param
   219 000001A5 EB04                    jmp draw_z_hLine_vramAddr$next
   220 000001A7 00000000                draw_z_hLine_vramAddr: dd 0
   221                                  draw_z_hLine_vramAddr$next:
   222 000001AB 5D                      pop ebp
   223 000001AC 58                      pop eax
   224 000001AD A3[A7010000]            mov [draw_z_hLine_vramAddr], eax
   225 000001B2 58                      pop eax
   226 000001B3 A3[A1010000]            mov [draw_z_hLine_screenWidth], eax
   227 000001B8 58                      pop eax
   228 000001B9 A3[9B010000]            mov [draw_z_hLine_color], eax
   229 000001BE 58                      pop eax
   230 000001BF A3[95010000]            mov [draw_z_hLine_ey], eax
   231 000001C4 58                      pop eax
   232 000001C5 A3[8F010000]            mov [draw_z_hLine_ex], eax
   233 000001CA 58                      pop eax
   234 000001CB A3[89010000]            mov [draw_z_hLine_by], eax
   235 000001D0 58                      pop eax
   236 000001D1 A3[83010000]            mov [draw_z_hLine_bx], eax
   237 000001D6 55                      push ebp
   238 000001D7 A1[83010000]            mov eax, [draw_z_hLine_bx]
   239 000001DC 50                      push eax
   240 000001DD EB04                    jmp draw_z_hLine_i$next
   241 000001DF 00000000                draw_z_hLine_i: dd 0
   242                                  draw_z_hLine_i$next:
   243 000001E3 58                      pop eax
   244 000001E4 A3[DF010000]            mov [draw_z_hLine_i], eax
   245                                  ; while start
   246                                  draw_z_hLine_while$1_start:
   247 000001E9 A1[DF010000]            mov eax, [draw_z_hLine_i]
   248 000001EE 50                      push eax
   249 000001EF A1[8F010000]            mov eax, [draw_z_hLine_ex]
   250 000001F4 50                      push eax
   251 000001F5 5B                      pop ebx
   252 000001F6 58                      pop eax
   253 000001F7 39D8                    cmp eax, ebx
   254 000001F9 7607                    jbe draw_z_hLine_while$1_lessequal@true$1
   255 000001FB B800000000              mov eax, 0
   256 00000200 EB05                    jmp draw_z_hLine_while$1_lessequal@false$1
   257                                  draw_z_hLine_while$1_lessequal@true$1:
   258 00000202 B801000000              mov eax, 1
   259                                  draw_z_hLine_while$1_lessequal@false$1:
   260 00000207 50                      push eax
   261 00000208 58                      pop eax
   262 00000209 83F800                  cmp eax, 0
   263 0000020C 743C                    je draw_z_hLine_while$1_end
   264 0000020E A1[DF010000]            mov eax, [draw_z_hLine_i]
   265 00000213 50                      push eax
   266 00000214 A1[89010000]            mov eax, [draw_z_hLine_by]
   267 00000219 50                      push eax
   268 0000021A A1[9B010000]            mov eax, [draw_z_hLine_color]
   269 0000021F 50                      push eax
   270 00000220 A1[A1010000]            mov eax, [draw_z_hLine_screenWidth]
   271 00000225 50                      push eax
   272 00000226 A1[A7010000]            mov eax, [draw_z_hLine_vramAddr]
   273 0000022B 50                      push eax
   274 0000022C E8C8FEFFFF              call draw_z_pixel
   275 00000231 A1[DF010000]            mov eax, [draw_z_hLine_i]
   276 00000236 50                      push eax
   277 00000237 B801000000              mov eax, 1
   278 0000023C 50                      push eax
   279 0000023D 58                      pop eax
   280 0000023E 5B                      pop ebx
   281 0000023F 01D8                    add eax, ebx
   282 00000241 50                      push eax
   283 00000242 58                      pop eax
   284 00000243 A3[DF010000]            mov [draw_z_hLine_i], eax
   285 00000248 EB9F                    jmp draw_z_hLine_while$1_start
   286                                  draw_z_hLine_while$1_end:
   287                                  ;while end
   288 0000024A C3                      ret
   289                                  draw_z_hLine$next:
   290                                  
   291                                  ;function
   292 0000024B EB3F                    jmp draw_z_font$next
   293                                  draw_z_font:
   294                                  ;param
   295 0000024D EB04                    jmp draw_z_font_charAddr$next
   296 0000024F 00000000                draw_z_font_charAddr: dd 0
   297                                  draw_z_font_charAddr$next:
   298                                  ;param
   299 00000253 EB04                    jmp draw_z_font_left$next
   300 00000255 00000000                draw_z_font_left: dd 0
   301                                  draw_z_font_left$next:
   302                                  ;param
   303 00000259 EB04                    jmp draw_z_font_top$next
   304 0000025B 00000000                draw_z_font_top: dd 0
   305                                  draw_z_font_top$next:
   306                                  ;param
   307 0000025F EB04                    jmp draw_z_font_foreColor$next
   308 00000261 00000000                draw_z_font_foreColor: dd 0
   309                                  draw_z_font_foreColor$next:
   310                                  ;param
   311 00000265 EB04                    jmp draw_z_font_backColor$next
   312 00000267 00000000                draw_z_font_backColor: dd 0
   313                                  draw_z_font_backColor$next:
   314 0000026B 5D                      pop ebp
   315 0000026C 58                      pop eax
   316 0000026D A3[67020000]            mov [draw_z_font_backColor], eax
   317 00000272 58                      pop eax
   318 00000273 A3[61020000]            mov [draw_z_font_foreColor], eax
   319 00000278 58                      pop eax
   320 00000279 A3[5B020000]            mov [draw_z_font_top], eax
   321 0000027E 58                      pop eax
   322 0000027F A3[55020000]            mov [draw_z_font_left], eax
   323 00000284 58                      pop eax
   324 00000285 A3[4F020000]            mov [draw_z_font_charAddr], eax
   325 0000028A 55                      push ebp
   326 0000028B C3                      ret
   327                                  draw_z_font$next:
   328                                  
   329                                  ;function
   330 0000028C E939010000              jmp draw_z_flush$next
   331                                  draw_z_flush:
   332                                  ;param
   333 00000291 EB04                    jmp draw_z_flush_addrVram$next
   334 00000293 00000000                draw_z_flush_addrVram: dd 0
   335                                  draw_z_flush_addrVram$next:
   336 00000297 5D                      pop ebp
   337 00000298 58                      pop eax
   338 00000299 A3[93020000]            mov [draw_z_flush_addrVram], eax
   339 0000029E 55                      push ebp
   340 0000029F B800000000              mov eax, 0
   341 000002A4 50                      push eax
   342 000002A5 EB04                    jmp draw_z_flush_left$next
   343 000002A7 00000000                draw_z_flush_left: dd 0
   344                                  draw_z_flush_left$next:
   345 000002AB 58                      pop eax
   346 000002AC A3[A7020000]            mov [draw_z_flush_left], eax
   347 000002B1 B800000000              mov eax, 0
   348 000002B6 50                      push eax
   349 000002B7 EB04                    jmp draw_z_flush_top$next
   350 000002B9 00000000                draw_z_flush_top: dd 0
   351                                  draw_z_flush_top$next:
   352 000002BD 58                      pop eax
   353 000002BE A3[B9020000]            mov [draw_z_flush_top], eax
   354                                  ; while start
   355                                  draw_z_flush_while$1_start:
   356 000002C3 A1[B9020000]            mov eax, [draw_z_flush_top]
   357 000002C8 50                      push eax
   358 000002C9 B819000000              mov eax, 25
   359 000002CE 50                      push eax
   360 000002CF 5B                      pop ebx
   361 000002D0 58                      pop eax
   362 000002D1 39D8                    cmp eax, ebx
   363 000002D3 7607                    jbe draw_z_flush_while$1_lessequal@true$2
   364 000002D5 B800000000              mov eax, 0
   365 000002DA EB05                    jmp draw_z_flush_while$1_lessequal@false$2
   366                                  draw_z_flush_while$1_lessequal@true$2:
   367 000002DC B801000000              mov eax, 1
   368                                  draw_z_flush_while$1_lessequal@false$2:
   369 000002E1 50                      push eax
   370 000002E2 58                      pop eax
   371 000002E3 83F800                  cmp eax, 0
   372 000002E6 0F84DD000000            je draw_z_flush_while$1_end
   373 000002EC B800000000              mov eax, 0
   374 000002F1 50                      push eax
   375 000002F2 58                      pop eax
   376 000002F3 A3[A7020000]            mov [draw_z_flush_left], eax
   377                                  ; while start
   378                                  draw_z_flush_while$1_while$1_start:
   379 000002F8 A1[A7020000]            mov eax, [draw_z_flush_left]
   380 000002FD 50                      push eax
   381 000002FE B828000000              mov eax, 40
   382 00000303 50                      push eax
   383 00000304 5B                      pop ebx
   384 00000305 58                      pop eax
   385 00000306 39D8                    cmp eax, ebx
   386 00000308 7607                    jbe draw_z_flush_while$1_while$1_lessequal@true$3
   387 0000030A B800000000              mov eax, 0
   388 0000030F EB05                    jmp draw_z_flush_while$1_while$1_lessequal@false$3
   389                                  draw_z_flush_while$1_while$1_lessequal@true$3:
   390 00000311 B801000000              mov eax, 1
   391                                  draw_z_flush_while$1_while$1_lessequal@false$3:
   392 00000316 50                      push eax
   393 00000317 58                      pop eax
   394 00000318 83F800                  cmp eax, 0
   395 0000031B 0F848C000000            je draw_z_flush_while$1_while$1_end
   396 00000321 A1[B9020000]            mov eax, [draw_z_flush_top]
   397 00000326 50                      push eax
   398 00000327 B828000000              mov eax, 40
   399 0000032C 50                      push eax
   400 0000032D 58                      pop eax
   401 0000032E 5B                      pop ebx
   402 0000032F F7E3                    mul ebx
   403 00000331 50                      push eax
   404 00000332 A1[A7020000]            mov eax, [draw_z_flush_left]
   405 00000337 50                      push eax
   406 00000338 58                      pop eax
   407 00000339 5B                      pop ebx
   408 0000033A 01D8                    add eax, ebx
   409 0000033C 50                      push eax
   410 0000033D 58                      pop eax
   411 0000033E BB04000000              mov ebx, 4
   412 00000343 F7E3                    mul ebx
   413 00000345 8B98[55230000]          mov ebx, [font_z_screen_buf+eax]
   414 0000034B 53                      push ebx
   415 0000034C EB04                    jmp draw_z_flush_while$1_while$1_color$next
   416 0000034E 00000000                draw_z_flush_while$1_while$1_color: dd 0
   417                                  draw_z_flush_while$1_while$1_color$next:
   418 00000352 58                      pop eax
   419 00000353 A3[4E030000]            mov [draw_z_flush_while$1_while$1_color], eax
   420 00000358 A1[A7020000]            mov eax, [draw_z_flush_left]
   421 0000035D 50                      push eax
   422 0000035E B808000000              mov eax, 8
   423 00000363 50                      push eax
   424 00000364 58                      pop eax
   425 00000365 5B                      pop ebx
   426 00000366 F7E3                    mul ebx
   427 00000368 50                      push eax
   428 00000369 A1[B9020000]            mov eax, [draw_z_flush_top]
   429 0000036E 50                      push eax
   430 0000036F B808000000              mov eax, 8
   431 00000374 50                      push eax
   432 00000375 58                      pop eax
   433 00000376 5B                      pop ebx
   434 00000377 F7E3                    mul ebx
   435 00000379 50                      push eax
   436 0000037A A1[4E030000]            mov eax, [draw_z_flush_while$1_while$1_color]
   437 0000037F 50                      push eax
   438 00000380 B840010000              mov eax, 320
   439 00000385 50                      push eax
   440 00000386 A1[93020000]            mov eax, [draw_z_flush_addrVram]
   441 0000038B 50                      push eax
   442 0000038C E868FDFFFF              call draw_z_pixel
   443 00000391 A1[A7020000]            mov eax, [draw_z_flush_left]
   444 00000396 50                      push eax
   445 00000397 B801000000              mov eax, 1
   446 0000039C 50                      push eax
   447 0000039D 58                      pop eax
   448 0000039E 5B                      pop ebx
   449 0000039F 01D8                    add eax, ebx
   450 000003A1 50                      push eax
   451 000003A2 58                      pop eax
   452 000003A3 A3[A7020000]            mov [draw_z_flush_left], eax
   453 000003A8 E94BFFFFFF              jmp draw_z_flush_while$1_while$1_start
   454                                  draw_z_flush_while$1_while$1_end:
   455                                  ;while end
   456 000003AD A1[B9020000]            mov eax, [draw_z_flush_top]
   457 000003B2 50                      push eax
   458 000003B3 B801000000              mov eax, 1
   459 000003B8 50                      push eax
   460 000003B9 58                      pop eax
   461 000003BA 5B                      pop ebx
   462 000003BB 01D8                    add eax, ebx
   463 000003BD 50                      push eax
   464 000003BE 58                      pop eax
   465 000003BF A3[B9020000]            mov [draw_z_flush_top], eax
   466 000003C4 E9FAFEFFFF              jmp draw_z_flush_while$1_start
   467                                  draw_z_flush_while$1_end:
   468                                  ;while end
   469 000003C9 C3                      ret
   470                                  draw_z_flush$next:
   471                                  
   472                                  ;function
   473 000003CA EB33                    jmp draw_z_char$next
   474                                  draw_z_char:
   475                                  ;param
   476 000003CC EB04                    jmp draw_z_char_left$next
   477 000003CE 00000000                draw_z_char_left: dd 0
   478                                  draw_z_char_left$next:
   479                                  ;param
   480 000003D2 EB04                    jmp draw_z_char_top$next
   481 000003D4 00000000                draw_z_char_top: dd 0
   482                                  draw_z_char_top$next:
   483                                  ;param
   484 000003D8 EB04                    jmp draw_z_char_ascii$next
   485 000003DA 00000000                draw_z_char_ascii: dd 0
   486                                  draw_z_char_ascii$next:
   487                                  ;param
   488 000003DE EB04                    jmp draw_z_char_addrVram$next
   489 000003E0 00000000                draw_z_char_addrVram: dd 0
   490                                  draw_z_char_addrVram$next:
   491 000003E4 5D                      pop ebp
   492 000003E5 58                      pop eax
   493 000003E6 A3[E0030000]            mov [draw_z_char_addrVram], eax
   494 000003EB 58                      pop eax
   495 000003EC A3[DA030000]            mov [draw_z_char_ascii], eax
   496 000003F1 58                      pop eax
   497 000003F2 A3[D4030000]            mov [draw_z_char_top], eax
   498 000003F7 58                      pop eax
   499 000003F8 A3[CE030000]            mov [draw_z_char_left], eax
   500 000003FD 55                      push ebp
   501 000003FE C3                      ret
   502                                  draw_z_char$next:
   503                                  
   504                                  ;function
   505 000003FF E9B6000000              jmp draw_z_string$next
   506                                  draw_z_string:
   507                                  ;param
   508 00000404 EB04                    jmp draw_z_string_left$next
   509 00000406 00000000                draw_z_string_left: dd 0
   510                                  draw_z_string_left$next:
   511                                  ;param
   512 0000040A EB04                    jmp draw_z_string_top$next
   513 0000040C 00000000                draw_z_string_top: dd 0
   514                                  draw_z_string_top$next:
   515                                  ;param
   516 00000410 EB04                    jmp draw_z_string_strAddr$next
   517 00000412 00000000                draw_z_string_strAddr: dd 0
   518                                  draw_z_string_strAddr$next:
   519                                  ;param
   520 00000416 EB04                    jmp draw_z_string_addrVram$next
   521 00000418 00000000                draw_z_string_addrVram: dd 0
   522                                  draw_z_string_addrVram$next:
   523 0000041C 5D                      pop ebp
   524 0000041D 58                      pop eax
   525 0000041E A3[18040000]            mov [draw_z_string_addrVram], eax
   526 00000423 58                      pop eax
   527 00000424 A3[12040000]            mov [draw_z_string_strAddr], eax
   528 00000429 58                      pop eax
   529 0000042A A3[0C040000]            mov [draw_z_string_top], eax
   530 0000042F 58                      pop eax
   531 00000430 A3[06040000]            mov [draw_z_string_left], eax
   532 00000435 55                      push ebp
   533 00000436 B800000000              mov eax, 0
   534 0000043B 50                      push eax
   535 0000043C EB04                    jmp draw_z_string_i$next
   536 0000043E 00000000                draw_z_string_i: dd 0
   537                                  draw_z_string_i$next:
   538 00000442 58                      pop eax
   539 00000443 A3[3E040000]            mov [draw_z_string_i], eax
   540                                  ; while start
   541                                  draw_z_string_while$1_start:
   542 00000448 A1[3E040000]            mov eax, [draw_z_string_i]
   543 0000044D 50                      push eax
   544 0000044E A1[12040000]            mov eax, [draw_z_string_strAddr]
   545 00000453 5B                      pop ebx
   546 00000454 01D8                    add eax, ebx
   547 00000456 8B18                    mov ebx, [eax]
   548 00000458 53                      push ebx
   549 00000459 B800000000              mov eax, 0
   550 0000045E 50                      push eax
   551 0000045F 5B                      pop ebx
   552 00000460 58                      pop eax
   553 00000461 39D8                    cmp eax, ebx
   554 00000463 7507                    jne draw_z_string_while$1_unequal@true$4
   555 00000465 B800000000              mov eax, 0
   556 0000046A EB05                    jmp draw_z_string_while$1_unequal@false$4
   557                                  draw_z_string_while$1_unequal@true$4:
   558 0000046C B801000000              mov eax, 1
   559                                  draw_z_string_while$1_unequal@false$4:
   560 00000471 50                      push eax
   561 00000472 58                      pop eax
   562 00000473 83F800                  cmp eax, 0
   563 00000476 7441                    je draw_z_string_while$1_end
   564 00000478 A1[06040000]            mov eax, [draw_z_string_left]
   565 0000047D 50                      push eax
   566 0000047E A1[0C040000]            mov eax, [draw_z_string_top]
   567 00000483 50                      push eax
   568 00000484 A1[3E040000]            mov eax, [draw_z_string_i]
   569 00000489 50                      push eax
   570 0000048A A1[12040000]            mov eax, [draw_z_string_strAddr]
   571 0000048F 5B                      pop ebx
   572 00000490 01D8                    add eax, ebx
   573 00000492 8B18                    mov ebx, [eax]
   574 00000494 53                      push ebx
   575 00000495 A1[18040000]            mov eax, [draw_z_string_addrVram]
   576 0000049A 50                      push eax
   577 0000049B E82CFFFFFF              call draw_z_char
   578 000004A0 A1[3E040000]            mov eax, [draw_z_string_i]
   579 000004A5 50                      push eax
   580 000004A6 B801000000              mov eax, 1
   581 000004AB 50                      push eax
   582 000004AC 58                      pop eax
   583 000004AD 5B                      pop ebx
   584 000004AE 01D8                    add eax, ebx
   585 000004B0 50                      push eax
   586 000004B1 58                      pop eax
   587 000004B2 A3[3E040000]            mov [draw_z_string_i], eax
   588 000004B7 EB8F                    jmp draw_z_string_while$1_start
   589                                  draw_z_string_while$1_end:
   590                                  ;while end
   591 000004B9 C3                      ret
   592                                  draw_z_string$next:
   593 000004BA E900010000              jmp font_z_A$next
   594 000004BF 000000000000000000-     font_z_A: dd 0,0,0,0,0,0,0,0,0,0,0,1,1,0,0,0,0,0,1,0,0,1,0,0,0,1,0,0,0,0,1,0,0,1,1,1,1,1,1,0,0,1,0,0,0,0,1,0,0,1,0,0,0,0,1,0,0,0,0,0,0,0,0,0,
   594 000004C8 000000000000000000-
   594 000004D1 000000000000000000-
   594 000004DA 000000000000000000-
   594 000004E3 000000000000000001-
   594 000004EC 000000010000000000-
   594 000004F5 000000000000000000-
   594 000004FE 000000000000000000-
   594 00000507 010000000000000000-
   594 00000510 000000010000000000-
   594 00000519 000000000000000000-
   594 00000522 000100000000000000-
   594 0000052B 000000000000000000-
   594 00000534 000000010000000000-
   594 0000053D 000000000000010000-
   594 00000546 000100000001000000-
   594 0000054F 010000000100000001-
   594 00000558 000000000000000000-
   594 00000561 000001000000000000-
   594 0000056A 000000000000000000-
   594 00000573 000000000100000000-
   594 0000057C 000000000000000100-
   594 00000585 000000000000000000-
   594 0000058E 000000000000000000-
   594 00000597 010000000000000000-
   594 000005A0 000000000000000000-
   594 000005A9 000000000000000000-
   594 000005B2 000000000000000000-
   594 000005BB 00000000           
   596                                  font_z_A$next:
   597 000005BF E900010000              jmp font_z_font_B$next
   598 000005C4 000000000000000000-     font_z_font_B: dd 0,0,0,0,0,0,0,0,0,1,1,1,1,1,0,0,0,1,0,0,0,0,1,0,0,1,1,1,1,1,0,0,0,1,0,0,0,0,1,0,0,1,0,0,0,0,1,0,0,1,1,1,1,1,0,0,0,0,0,0,0,0,0,0,
   598 000005CD 000000000000000000-
   598 000005D6 000000000000000000-
   598 000005DF 000000000000000000-
   598 000005E8 010000000100000001-
   598 000005F1 000000010000000100-
   598 000005FA 000000000000000000-
   598 00000603 000000000001000000-
   598 0000060C 000000000000000000-
   598 00000615 000000000000000100-
   598 0000061E 000000000000000000-
   598 00000627 000100000001000000-
   598 00000630 010000000100000001-
   598 00000639 000000000000000000-
   598 00000642 000000000000010000-
   598 0000064B 000000000000000000-
   598 00000654 000000000000000001-
   598 0000065D 000000000000000000-
   598 00000666 000001000000000000-
   598 0000066F 000000000000000000-
   598 00000678 000000000100000000-
   598 00000681 000000000000000100-
   598 0000068A 000001000000010000-
   598 00000693 000100000001000000-
   598 0000069C 000000000000000000-
   598 000006A5 000000000000000000-
   598 000006AE 000000000000000000-
   598 000006B7 000000000000000000-
   598 000006C0 00000000           
   600                                  font_z_font_B$next:
   601 000006C4 E900010000              jmp font_z_font_C$next
   602 000006C9 000000000000000000-     font_z_font_C: dd 0,0,0,0,0,0,0,0,0,0,1,1,1,1,0,0,0,1,0,0,0,0,1,0,0,1,0,0,0,0,0,0,0,1,0,0,0,0,0,0,0,1,0,0,0,0,1,0,0,0,1,1,1,1,0,0,0,0,0,0,0,0,0,0,
   602 000006D2 000000000000000000-
   602 000006DB 000000000000000000-
   602 000006E4 000000000000000000-
   602 000006ED 000000000100000001-
   602 000006F6 000000010000000100-
   602 000006FF 000000000000000000-
   602 00000708 000000000001000000-
   602 00000711 000000000000000000-
   602 0000071A 000000000000000100-
   602 00000723 000000000000000000-
   602 0000072C 000100000000000000-
   602 00000735 000000000000000000-
   602 0000073E 000000000000000000-
   602 00000747 000000000000010000-
   602 00000750 000000000000000000-
   602 00000759 000000000000000000-
   602 00000762 000000000000000000-
   602 0000076B 000001000000000000-
   602 00000774 000000000000000000-
   602 0000077D 000000000100000000-
   602 00000786 000000000000000000-
   602 0000078F 000001000000010000-
   602 00000798 000100000001000000-
   602 000007A1 000000000000000000-
   602 000007AA 000000000000000000-
   602 000007B3 000000000000000000-
   602 000007BC 000000000000000000-
   602 000007C5 00000000           
   604                                  font_z_font_C$next:
   605 000007C9 E900010000              jmp font_z_font_D$next
   606 000007CE 000000000000000000-     font_z_font_D: dd 0,0,0,0,0,0,0,0,0,1,1,1,1,1,0,0,0,1,0,0,0,0,1,0,0,1,0,0,0,0,1,0,0,1,0,0,0,0,1,0,0,1,0,0,0,0,1,0,0,1,1,1,1,1,0,0,0,0,0,0,0,0,0,0,
   606 000007D7 000000000000000000-
   606 000007E0 000000000000000000-
   606 000007E9 000000000000000000-
   606 000007F2 010000000100000001-
   606 000007FB 000000010000000100-
   606 00000804 000000000000000000-
   606 0000080D 000000000001000000-
   606 00000816 000000000000000000-
   606 0000081F 000000000000000100-
   606 00000828 000000000000000000-
   606 00000831 000100000000000000-
   606 0000083A 000000000000000000-
   606 00000843 000000010000000000-
   606 0000084C 000000000000010000-
   606 00000855 000000000000000000-
   606 0000085E 000000000000000001-
   606 00000867 000000000000000000-
   606 00000870 000001000000000000-
   606 00000879 000000000000000000-
   606 00000882 000000000100000000-
   606 0000088B 000000000000000100-
   606 00000894 000001000000010000-
   606 0000089D 000100000001000000-
   606 000008A6 000000000000000000-
   606 000008AF 000000000000000000-
   606 000008B8 000000000000000000-
   606 000008C1 000000000000000000-
   606 000008CA 00000000           
   608                                  font_z_font_D$next:
   609 000008CE E900010000              jmp font_z_font_E$next
   610 000008D3 000000000000000000-     font_z_font_E: dd 0,0,0,0,0,0,0,0,0,1,1,1,1,1,1,0,0,1,0,0,0,0,0,0,0,1,1,1,1,1,1,0,0,1,0,0,0,0,0,0,0,1,0,0,0,0,0,0,0,1,1,1,1,1,1,0,0,0,0,0,0,0,0,0,
   610 000008DC 000000000000000000-
   610 000008E5 000000000000000000-
   610 000008EE 000000000000000000-
   610 000008F7 010000000100000001-
   610 00000900 000000010000000100-
   610 00000909 000001000000000000-
   610 00000912 000000000001000000-
   610 0000091B 000000000000000000-
   610 00000924 000000000000000000-
   610 0000092D 000000000000000000-
   610 00000936 000100000001000000-
   610 0000093F 010000000100000001-
   610 00000948 000000010000000000-
   610 00000951 000000000000010000-
   610 0000095A 000000000000000000-
   610 00000963 000000000000000000-
   610 0000096C 000000000000000000-
   610 00000975 000001000000000000-
   610 0000097E 000000000000000000-
   610 00000987 000000000000000000-
   610 00000990 000000000000000100-
   610 00000999 000001000000010000-
   610 000009A2 000100000001000000-
   610 000009AB 010000000000000000-
   610 000009B4 000000000000000000-
   610 000009BD 000000000000000000-
   610 000009C6 000000000000000000-
   610 000009CF 00000000           
   612                                  font_z_font_E$next:
   613 000009D3 E900010000              jmp font_z_font_F$next
   614 000009D8 000000000000000000-     font_z_font_F: dd 0,0,0,0,0,0,0,0,0,1,1,1,1,1,1,0,0,1,0,0,0,0,0,0,0,1,1,1,1,1,0,0,0,1,0,0,0,0,0,0,0,1,0,0,0,0,0,0,0,1,0,0,0,0,0,0,0,0,0,0,0,0,0,0,
   614 000009E1 000000000000000000-
   614 000009EA 000000000000000000-
   614 000009F3 000000000000000000-
   614 000009FC 010000000100000001-
   614 00000A05 000000010000000100-
   614 00000A0E 000001000000000000-
   614 00000A17 000000000001000000-
   614 00000A20 000000000000000000-
   614 00000A29 000000000000000000-
   614 00000A32 000000000000000000-
   614 00000A3B 000100000001000000-
   614 00000A44 010000000100000001-
   614 00000A4D 000000000000000000-
   614 00000A56 000000000000010000-
   614 00000A5F 000000000000000000-
   614 00000A68 000000000000000000-
   614 00000A71 000000000000000000-
   614 00000A7A 000001000000000000-
   614 00000A83 000000000000000000-
   614 00000A8C 000000000000000000-
   614 00000A95 000000000000000100-
   614 00000A9E 000000000000000000-
   614 00000AA7 000000000000000000-
   614 00000AB0 000000000000000000-
   614 00000AB9 000000000000000000-
   614 00000AC2 000000000000000000-
   614 00000ACB 000000000000000000-
   614 00000AD4 00000000           
   616                                  font_z_font_F$next:
   617 00000AD8 E900010000              jmp font_z_font_G$next
   618 00000ADD 000000000000000000-     font_z_font_G: dd 0,0,0,0,0,0,0,0,0,0,1,1,1,1,0,0,0,1,0,0,0,0,1,0,0,1,0,0,0,0,0,0,0,1,0,0,0,1,1,0,0,1,0,0,0,0,1,0,0,0,1,1,1,1,1,0,0,0,0,0,0,0,0,0,
   618 00000AE6 000000000000000000-
   618 00000AEF 000000000000000000-
   618 00000AF8 000000000000000000-
   618 00000B01 000000000100000001-
   618 00000B0A 000000010000000100-
   618 00000B13 000000000000000000-
   618 00000B1C 000000000001000000-
   618 00000B25 000000000000000000-
   618 00000B2E 000000000000000100-
   618 00000B37 000000000000000000-
   618 00000B40 000100000000000000-
   618 00000B49 000000000000000000-
   618 00000B52 000000000000000000-
   618 00000B5B 000000000000010000-
   618 00000B64 000000000000000000-
   618 00000B6D 000000000100000001-
   618 00000B76 000000000000000000-
   618 00000B7F 000001000000000000-
   618 00000B88 000000000000000000-
   618 00000B91 000000000100000000-
   618 00000B9A 000000000000000000-
   618 00000BA3 000001000000010000-
   618 00000BAC 000100000001000000-
   618 00000BB5 010000000000000000-
   618 00000BBE 000000000000000000-
   618 00000BC7 000000000000000000-
   618 00000BD0 000000000000000000-
   618 00000BD9 00000000           
   620                                  font_z_font_G$next:
   621 00000BDD E900010000              jmp font_z_font_H$next
   622 00000BE2 000000000000000000-     font_z_font_H: dd 0,0,0,0,0,0,0,0,0,1,0,0,0,0,1,0,0,1,0,0,0,0,1,0,0,1,1,1,1,1,1,0,0,1,0,0,0,0,1,0,0,1,0,0,0,0,1,0,0,1,0,0,0,0,1,0,0,0,0,0,0,0,0,0,
   622 00000BEB 000000000000000000-
   622 00000BF4 000000000000000000-
   622 00000BFD 000000000000000000-
   622 00000C06 010000000000000000-
   622 00000C0F 000000000000000000-
   622 00000C18 000001000000000000-
   622 00000C21 000000000001000000-
   622 00000C2A 000000000000000000-
   622 00000C33 000000000000000100-
   622 00000C3C 000000000000000000-
   622 00000C45 000100000001000000-
   622 00000C4E 010000000100000001-
   622 00000C57 000000010000000000-
   622 00000C60 000000000000010000-
   622 00000C69 000000000000000000-
   622 00000C72 000000000000000001-
   622 00000C7B 000000000000000000-
   622 00000C84 000001000000000000-
   622 00000C8D 000000000000000000-
   622 00000C96 000000000100000000-
   622 00000C9F 000000000000000100-
   622 00000CA8 000000000000000000-
   622 00000CB1 000000000000000000-
   622 00000CBA 010000000000000000-
   622 00000CC3 000000000000000000-
   622 00000CCC 000000000000000000-
   622 00000CD5 000000000000000000-
   622 00000CDE 00000000           
   624                                  font_z_font_H$next:
   625 00000CE2 E900010000              jmp font_z_font_I$next
   626 00000CE7 000000000000000000-     font_z_font_I: dd 0,0,0,0,0,0,0,0,0,0,1,1,1,0,0,0,0,0,0,1,0,0,0,0,0,0,0,1,0,0,0,0,0,0,0,1,0,0,0,0,0,0,0,1,0,0,0,0,0,0,1,1,1,0,0,0,0,0,0,0,0,0,0,0,
   626 00000CF0 000000000000000000-
   626 00000CF9 000000000000000000-
   626 00000D02 000000000000000000-
   626 00000D0B 000000000100000001-
   626 00000D14 000000010000000000-
   626 00000D1D 000000000000000000-
   626 00000D26 000000000000000000-
   626 00000D2F 000000000100000000-
   626 00000D38 000000000000000000-
   626 00000D41 000000000000000000-
   626 00000D4A 000000000000000000-
   626 00000D53 010000000000000000-
   626 00000D5C 000000000000000000-
   626 00000D65 000000000000000000-
   626 00000D6E 000000000001000000-
   626 00000D77 000000000000000000-
   626 00000D80 000000000000000000-
   626 00000D89 000000000000000000-
   626 00000D92 000100000000000000-
   626 00000D9B 000000000000000000-
   626 00000DA4 000000000000000000-
   626 00000DAD 000001000000010000-
   626 00000DB6 000100000000000000-
   626 00000DBF 000000000000000000-
   626 00000DC8 000000000000000000-
   626 00000DD1 000000000000000000-
   626 00000DDA 000000000000000000-
   626 00000DE3 00000000           
   628                                  font_z_font_I$next:
   629 00000DE7 E900010000              jmp font_z_font_J$next
   630 00000DEC 000000000000000000-     font_z_font_J: dd 0,0,0,0,0,0,0,0,0,0,1,1,1,1,0,0,0,0,0,0,0,1,0,0,0,0,0,0,0,1,0,0,0,0,0,0,0,1,0,0,0,0,0,1,0,1,0,0,0,0,0,0,1,0,0,0,0,0,0,0,0,0,0,0,
   630 00000DF5 000000000000000000-
   630 00000DFE 000000000000000000-
   630 00000E07 000000000000000000-
   630 00000E10 000000000100000001-
   630 00000E19 000000010000000100-
   630 00000E22 000000000000000000-
   630 00000E2B 000000000000000000-
   630 00000E34 000000000000000000-
   630 00000E3D 000000010000000000-
   630 00000E46 000000000000000000-
   630 00000E4F 000000000000000000-
   630 00000E58 000000000000000001-
   630 00000E61 000000000000000000-
   630 00000E6A 000000000000000000-
   630 00000E73 000000000000000000-
   630 00000E7C 000000000100000000-
   630 00000E85 000000000000000000-
   630 00000E8E 000000000000000000-
   630 00000E97 000100000000000000-
   630 00000EA0 010000000000000000-
   630 00000EA9 000000000000000000-
   630 00000EB2 000000000000000000-
   630 00000EBB 000100000000000000-
   630 00000EC4 000000000000000000-
   630 00000ECD 000000000000000000-
   630 00000ED6 000000000000000000-
   630 00000EDF 000000000000000000-
   630 00000EE8 00000000           
   632                                  font_z_font_J$next:
   633 00000EEC E900010000              jmp font_z_font_K$next
   634 00000EF1 000000000000000000-     font_z_font_K: dd 0,0,0,0,0,0,0,0,0,1,0,0,1,1,0,0,0,1,0,1,1,0,0,0,0,1,1,1,0,0,0,0,0,1,0,1,1,0,0,0,0,1,0,0,1,1,0,0,0,1,0,0,0,1,1,0,0,0,0,0,0,0,0,0,
   634 00000EFA 000000000000000000-
   634 00000F03 000000000000000000-
   634 00000F0C 000000000000000000-
   634 00000F15 010000000000000000-
   634 00000F1E 000000010000000100-
   634 00000F27 000000000000000000-
   634 00000F30 000000000001000000-
   634 00000F39 000000000100000001-
   634 00000F42 000000000000000000-
   634 00000F4B 000000000000000000-
   634 00000F54 000100000001000000-
   634 00000F5D 010000000000000000-
   634 00000F66 000000000000000000-
   634 00000F6F 000000000000010000-
   634 00000F78 000000000001000000-
   634 00000F81 010000000000000000-
   634 00000F8A 000000000000000000-
   634 00000F93 000001000000000000-
   634 00000F9C 000000000001000000-
   634 00000FA5 010000000000000000-
   634 00000FAE 000000000000000100-
   634 00000FB7 000000000000000000-
   634 00000FC0 000000000001000000-
   634 00000FC9 010000000000000000-
   634 00000FD2 000000000000000000-
   634 00000FDB 000000000000000000-
   634 00000FE4 000000000000000000-
   634 00000FED 00000000           
   636                                  font_z_font_K$next:
   637 00000FF1 E900010000              jmp font_z_font_L$next
   638 00000FF6 000000000000000000-     font_z_font_L: dd 0,0,0,0,0,0,0,0,0,0,1,0,0,0,0,0,0,0,1,0,0,0,0,0,0,0,1,0,0,0,0,0,0,0,1,0,0,0,0,0,0,0,1,0,0,0,0,0,0,0,1,1,1,1,0,0,0,0,0,0,0,0,0,0,
   638 00000FFF 000000000000000000-
   638 00001008 000000000000000000-
   638 00001011 000000000000000000-
   638 0000101A 000000000100000000-
   638 00001023 000000000000000000-
   638 0000102C 000000000000000000-
   638 00001035 000000000000000000-
   638 0000103E 010000000000000000-
   638 00001047 000000000000000000-
   638 00001050 000000000000000000-
   638 00001059 000000000001000000-
   638 00001062 000000000000000000-
   638 0000106B 000000000000000000-
   638 00001074 000000000000000000-
   638 0000107D 000100000000000000-
   638 00001086 000000000000000000-
   638 0000108F 000000000000000000-
   638 00001098 000000000000010000-
   638 000010A1 000000000000000000-
   638 000010AA 000000000000000000-
   638 000010B3 000000000000000000-
   638 000010BC 000001000000010000-
   638 000010C5 000100000001000000-
   638 000010CE 000000000000000000-
   638 000010D7 000000000000000000-
   638 000010E0 000000000000000000-
   638 000010E9 000000000000000000-
   638 000010F2 00000000           
   640                                  font_z_font_L$next:
   641 000010F6 E900010000              jmp font_z_font_M$next
   642 000010FB 000000000000000000-     font_z_font_M: dd 0,0,0,0,0,0,0,0,0,1,0,0,0,0,1,0,0,1,1,0,0,1,1,0,0,1,0,1,1,0,1,0,0,1,0,0,0,0,1,0,0,1,0,0,0,0,1,0,0,1,0,0,0,0,1,0,0,0,0,0,0,0,0,0,
   642 00001104 000000000000000000-
   642 0000110D 000000000000000000-
   642 00001116 000000000000000000-
   642 0000111F 010000000000000000-
   642 00001128 000000000000000000-
   642 00001131 000001000000000000-
   642 0000113A 000000000001000000-
   642 00001143 010000000000000000-
   642 0000114C 000000010000000100-
   642 00001155 000000000000000000-
   642 0000115E 000100000000000000-
   642 00001167 010000000100000000-
   642 00001170 000000010000000000-
   642 00001179 000000000000010000-
   642 00001182 000000000000000000-
   642 0000118B 000000000000000001-
   642 00001194 000000000000000000-
   642 0000119D 000001000000000000-
   642 000011A6 000000000000000000-
   642 000011AF 000000000100000000-
   642 000011B8 000000000000000100-
   642 000011C1 000000000000000000-
   642 000011CA 000000000000000000-
   642 000011D3 010000000000000000-
   642 000011DC 000000000000000000-
   642 000011E5 000000000000000000-
   642 000011EE 000000000000000000-
   642 000011F7 00000000           
   644                                  font_z_font_M$next:
   645 000011FB E900010000              jmp font_z_font_N$next
   646 00001200 000000000000000000-     font_z_font_N: dd 0,0,0,0,0,0,0,0,0,1,0,0,0,0,1,0,0,1,1,0,0,0,1,0,0,1,0,1,0,0,1,0,0,1,0,0,1,0,1,0,0,1,0,0,0,1,1,0,0,1,0,0,0,0,1,0,0,0,0,0,0,0,0,0,
   646 00001209 000000000000000000-
   646 00001212 000000000000000000-
   646 0000121B 000000000000000000-
   646 00001224 010000000000000000-
   646 0000122D 000000000000000000-
   646 00001236 000001000000000000-
   646 0000123F 000000000001000000-
   646 00001248 010000000000000000-
   646 00001251 000000000000000100-
   646 0000125A 000000000000000000-
   646 00001263 000100000000000000-
   646 0000126C 010000000000000000-
   646 00001275 000000010000000000-
   646 0000127E 000000000000010000-
   646 00001287 000000000000000000-
   646 00001290 010000000000000001-
   646 00001299 000000000000000000-
   646 000012A2 000001000000000000-
   646 000012AB 000000000000000000-
   646 000012B4 010000000100000000-
   646 000012BD 000000000000000100-
   646 000012C6 000000000000000000-
   646 000012CF 000000000000000000-
   646 000012D8 010000000000000000-
   646 000012E1 000000000000000000-
   646 000012EA 000000000000000000-
   646 000012F3 000000000000000000-
   646 000012FC 00000000           
   648                                  font_z_font_N$next:
   649 00001300 E900010000              jmp font_z_font_O$next
   650 00001305 000000000000000000-     font_z_font_O: dd 0,0,0,0,0,0,0,0,0,1,1,1,1,1,1,0,0,1,0,0,0,0,1,0,0,1,0,0,0,0,1,0,0,1,0,0,0,0,1,0,0,1,0,0,0,0,1,0,0,1,1,1,1,1,1,0,0,0,0,0,0,0,0,0,
   650 0000130E 000000000000000000-
   650 00001317 000000000000000000-
   650 00001320 000000000000000000-
   650 00001329 010000000100000001-
   650 00001332 000000010000000100-
   650 0000133B 000001000000000000-
   650 00001344 000000000001000000-
   650 0000134D 000000000000000000-
   650 00001356 000000000000000100-
   650 0000135F 000000000000000000-
   650 00001368 000100000000000000-
   650 00001371 000000000000000000-
   650 0000137A 000000010000000000-
   650 00001383 000000000000010000-
   650 0000138C 000000000000000000-
   650 00001395 000000000000000001-
   650 0000139E 000000000000000000-
   650 000013A7 000001000000000000-
   650 000013B0 000000000000000000-
   650 000013B9 000000000100000000-
   650 000013C2 000000000000000100-
   650 000013CB 000001000000010000-
   650 000013D4 000100000001000000-
   650 000013DD 010000000000000000-
   650 000013E6 000000000000000000-
   650 000013EF 000000000000000000-
   650 000013F8 000000000000000000-
   650 00001401 00000000           
   652                                  font_z_font_O$next:
   653 00001405 E900010000              jmp font_z_font_P$next
   654 0000140A 000000000000000000-     font_z_font_P: dd 0,0,0,0,0,0,0,0,0,0,1,1,1,0,0,0,0,0,1,0,0,1,0,0,0,0,1,0,0,1,0,0,0,0,1,1,1,0,0,0,0,0,1,0,0,0,0,0,0,0,1,0,0,0,0,0,0,0,0,0,0,0,0,0,
   654 00001413 000000000000000000-
   654 0000141C 000000000000000000-
   654 00001425 000000000000000000-
   654 0000142E 000000000100000001-
   654 00001437 000000010000000000-
   654 00001440 000000000000000000-
   654 00001449 000000000000000000-
   654 00001452 010000000000000000-
   654 0000145B 000000010000000000-
   654 00001464 000000000000000000-
   654 0000146D 000000000001000000-
   654 00001476 000000000000000001-
   654 0000147F 000000000000000000-
   654 00001488 000000000000000000-
   654 00001491 000100000001000000-
   654 0000149A 010000000000000000-
   654 000014A3 000000000000000000-
   654 000014AC 000000000000010000-
   654 000014B5 000000000000000000-
   654 000014BE 000000000000000000-
   654 000014C7 000000000000000000-
   654 000014D0 000001000000000000-
   654 000014D9 000000000000000000-
   654 000014E2 000000000000000000-
   654 000014EB 000000000000000000-
   654 000014F4 000000000000000000-
   654 000014FD 000000000000000000-
   654 00001506 00000000           
   656                                  font_z_font_P$next:
   657 0000150A E900010000              jmp font_z_font_Q$next
   658 0000150F 000000000000000000-     font_z_font_Q: dd 0,0,0,0,0,0,0,0,0,0,0,1,1,0,0,0,0,0,1,0,0,1,0,0,0,1,0,0,0,0,1,0,0,1,0,0,1,0,1,0,0,0,1,0,0,1,0,0,0,0,0,1,1,0,1,0,0,0,0,0,0,0,0,0,
   658 00001518 000000000000000000-
   658 00001521 000000000000000000-
   658 0000152A 000000000000000000-
   658 00001533 000000000000000001-
   658 0000153C 000000010000000000-
   658 00001545 000000000000000000-
   658 0000154E 000000000000000000-
   658 00001557 010000000000000000-
   658 00001560 000000010000000000-
   658 00001569 000000000000000000-
   658 00001572 000100000000000000-
   658 0000157B 000000000000000000-
   658 00001584 000000010000000000-
   658 0000158D 000000000000010000-
   658 00001596 000000000000000000-
   658 0000159F 010000000000000001-
   658 000015A8 000000000000000000-
   658 000015B1 000000000000010000-
   658 000015BA 000000000000000000-
   658 000015C3 010000000000000000-
   658 000015CC 000000000000000000-
   658 000015D5 000000000000010000-
   658 000015DE 000100000000000000-
   658 000015E7 010000000000000000-
   658 000015F0 000000000000000000-
   658 000015F9 000000000000000000-
   658 00001602 000000000000000000-
   658 0000160B 00000000           
   660                                  font_z_font_Q$next:
   661 0000160F E900010000              jmp font_z_font_R$next
   662 00001614 000000000000000000-     font_z_font_R: dd 0,0,0,0,0,0,0,0,0,0,1,1,1,0,0,0,0,0,1,0,0,1,0,0,0,0,1,0,0,1,0,0,0,0,1,1,1,0,0,0,0,0,1,0,0,1,0,0,0,0,1,0,0,0,1,0,0,0,0,0,0,0,0,0,
   662 0000161D 000000000000000000-
   662 00001626 000000000000000000-
   662 0000162F 000000000000000000-
   662 00001638 000000000100000001-
   662 00001641 000000010000000000-
   662 0000164A 000000000000000000-
   662 00001653 000000000000000000-
   662 0000165C 010000000000000000-
   662 00001665 000000010000000000-
   662 0000166E 000000000000000000-
   662 00001677 000000000001000000-
   662 00001680 000000000000000001-
   662 00001689 000000000000000000-
   662 00001692 000000000000000000-
   662 0000169B 000100000001000000-
   662 000016A4 010000000000000000-
   662 000016AD 000000000000000000-
   662 000016B6 000000000000010000-
   662 000016BF 000000000000000000-
   662 000016C8 010000000000000000-
   662 000016D1 000000000000000000-
   662 000016DA 000001000000000000-
   662 000016E3 000000000000000000-
   662 000016EC 010000000000000000-
   662 000016F5 000000000000000000-
   662 000016FE 000000000000000000-
   662 00001707 000000000000000000-
   662 00001710 00000000           
   664                                  font_z_font_R$next:
   665 00001714 E900010000              jmp font_z_font_S$next
   666 00001719 000000000000000000-     font_z_font_S: dd 0,0,0,0,0,0,0,0,0,0,1,1,1,1,0,0,0,1,0,0,0,0,1,0,0,0,1,1,0,0,0,0,0,0,0,0,1,1,0,0,0,1,0,0,0,0,1,0,0,0,1,1,1,1,0,0,0,0,0,0,0,0,0,0,
   666 00001722 000000000000000000-
   666 0000172B 000000000000000000-
   666 00001734 000000000000000000-
   666 0000173D 000000000100000001-
   666 00001746 000000010000000100-
   666 0000174F 000000000000000000-
   666 00001758 000000000001000000-
   666 00001761 000000000000000000-
   666 0000176A 000000000000000100-
   666 00001773 000000000000000000-
   666 0000177C 000000000001000000-
   666 00001785 010000000000000000-
   666 0000178E 000000000000000000-
   666 00001797 000000000000000000-
   666 000017A0 000000000000000000-
   666 000017A9 010000000100000000-
   666 000017B2 000000000000000000-
   666 000017BB 000001000000000000-
   666 000017C4 000000000000000000-
   666 000017CD 000000000100000000-
   666 000017D6 000000000000000000-
   666 000017DF 000001000000010000-
   666 000017E8 000100000001000000-
   666 000017F1 000000000000000000-
   666 000017FA 000000000000000000-
   666 00001803 000000000000000000-
   666 0000180C 000000000000000000-
   666 00001815 00000000           
   668                                  font_z_font_S$next:
   669 00001819 E900010000              jmp font_z_font_T$next
   670 0000181E 000000000000000000-     font_z_font_T: dd 0,0,0,0,0,0,0,0,0,1,1,1,1,1,0,0,0,0,0,1,0,0,0,0,0,0,0,1,0,0,0,0,0,0,0,1,0,0,0,0,0,0,0,1,0,0,0,0,0,0,0,1,0,0,0,0,0,0,0,0,0,0,0,0,
   670 00001827 000000000000000000-
   670 00001830 000000000000000000-
   670 00001839 000000000000000000-
   670 00001842 010000000100000001-
   670 0000184B 000000010000000100-
   670 00001854 000000000000000000-
   670 0000185D 000000000000000000-
   670 00001866 000000000100000000-
   670 0000186F 000000000000000000-
   670 00001878 000000000000000000-
   670 00001881 000000000000000000-
   670 0000188A 010000000000000000-
   670 00001893 000000000000000000-
   670 0000189C 000000000000000000-
   670 000018A5 000000000001000000-
   670 000018AE 000000000000000000-
   670 000018B7 000000000000000000-
   670 000018C0 000000000000000000-
   670 000018C9 000100000000000000-
   670 000018D2 000000000000000000-
   670 000018DB 000000000000000000-
   670 000018E4 000000000000010000-
   670 000018ED 000000000000000000-
   670 000018F6 000000000000000000-
   670 000018FF 000000000000000000-
   670 00001908 000000000000000000-
   670 00001911 000000000000000000-
   670 0000191A 00000000           
   672                                  font_z_font_T$next:
   673 0000191E E900010000              jmp font_z_font_U$next
   674 00001923 000000000000000000-     font_z_font_U: dd 0,0,0,0,0,0,0,0,0,1,0,0,0,0,1,0,0,1,0,0,0,0,1,0,0,1,0,0,0,0,1,0,0,1,0,0,0,0,1,0,0,0,1,0,0,1,0,0,0,0,0,1,1,0,0,0,0,0,0,0,0,0,0,0,
   674 0000192C 000000000000000000-
   674 00001935 000000000000000000-
   674 0000193E 000000000000000000-
   674 00001947 010000000000000000-
   674 00001950 000000000000000000-
   674 00001959 000001000000000000-
   674 00001962 000000000001000000-
   674 0000196B 000000000000000000-
   674 00001974 000000000000000100-
   674 0000197D 000000000000000000-
   674 00001986 000100000000000000-
   674 0000198F 000000000000000000-
   674 00001998 000000010000000000-
   674 000019A1 000000000000010000-
   674 000019AA 000000000000000000-
   674 000019B3 000000000000000001-
   674 000019BC 000000000000000000-
   674 000019C5 000000000000010000-
   674 000019CE 000000000000000000-
   674 000019D7 010000000000000000-
   674 000019E0 000000000000000000-
   674 000019E9 000000000000010000-
   674 000019F2 000100000000000000-
   674 000019FB 000000000000000000-
   674 00001A04 000000000000000000-
   674 00001A0D 000000000000000000-
   674 00001A16 000000000000000000-
   674 00001A1F 00000000           
   676                                  font_z_font_U$next:
   677 00001A23 E900010000              jmp font_z_font_V$next
   678 00001A28 000000000000000000-     font_z_font_V: dd 0,0,0,0,0,0,0,0,0,1,0,0,0,0,1,0,0,1,0,0,0,0,1,0,0,0,1,0,0,1,0,0,0,0,1,0,0,1,0,0,0,0,0,1,1,0,0,0,0,0,0,1,1,0,0,0,0,0,0,0,0,0,0,0,
   678 00001A31 000000000000000000-
   678 00001A3A 000000000000000000-
   678 00001A43 000000000000000000-
   678 00001A4C 010000000000000000-
   678 00001A55 000000000000000000-
   678 00001A5E 000001000000000000-
   678 00001A67 000000000001000000-
   678 00001A70 000000000000000000-
   678 00001A79 000000000000000100-
   678 00001A82 000000000000000000-
   678 00001A8B 000000000001000000-
   678 00001A94 000000000000000001-
   678 00001A9D 000000000000000000-
   678 00001AA6 000000000000000000-
   678 00001AAF 000100000000000000-
   678 00001AB8 000000000100000000-
   678 00001AC1 000000000000000000-
   678 00001ACA 000000000000000000-
   678 00001AD3 000100000001000000-
   678 00001ADC 000000000000000000-
   678 00001AE5 000000000000000000-
   678 00001AEE 000000000000010000-
   678 00001AF7 000100000000000000-
   678 00001B00 000000000000000000-
   678 00001B09 000000000000000000-
   678 00001B12 000000000000000000-
   678 00001B1B 000000000000000000-
   678 00001B24 00000000           
   680                                  font_z_font_V$next:
   681 00001B28 E900010000              jmp font_z_font_W$next
   682 00001B2D 000000000000000000-     font_z_font_W: dd 0,0,0,0,0,0,0,0,0,1,0,0,0,0,1,0,0,1,0,0,0,0,1,0,0,1,0,0,0,0,1,0,0,1,0,1,1,0,1,0,0,1,1,0,0,1,1,0,0,1,0,0,0,0,1,0,0,0,0,0,0,0,0,0,
   682 00001B36 000000000000000000-
   682 00001B3F 000000000000000000-
   682 00001B48 000000000000000000-
   682 00001B51 010000000000000000-
   682 00001B5A 000000000000000000-
   682 00001B63 000001000000000000-
   682 00001B6C 000000000001000000-
   682 00001B75 000000000000000000-
   682 00001B7E 000000000000000100-
   682 00001B87 000000000000000000-
   682 00001B90 000100000000000000-
   682 00001B99 000000000000000000-
   682 00001BA2 000000010000000000-
   682 00001BAB 000000000000010000-
   682 00001BB4 000000000001000000-
   682 00001BBD 010000000000000001-
   682 00001BC6 000000000000000000-
   682 00001BCF 000001000000010000-
   682 00001BD8 000000000000000000-
   682 00001BE1 010000000100000000-
   682 00001BEA 000000000000000100-
   682 00001BF3 000000000000000000-
   682 00001BFC 000000000000000000-
   682 00001C05 010000000000000000-
   682 00001C0E 000000000000000000-
   682 00001C17 000000000000000000-
   682 00001C20 000000000000000000-
   682 00001C29 00000000           
   684                                  font_z_font_W$next:
   685 00001C2D E900010000              jmp font_z_font_X$next
   686 00001C32 000000000000000000-     font_z_font_X: dd 0,0,0,0,0,0,0,0,0,1,0,0,0,0,1,0,0,0,1,0,0,1,0,0,0,0,0,1,1,0,0,0,0,0,0,1,1,0,0,0,0,0,1,0,0,1,0,0,0,1,0,0,0,0,1,0,0,0,0,0,0,0,0,0,
   686 00001C3B 000000000000000000-
   686 00001C44 000000000000000000-
   686 00001C4D 000000000000000000-
   686 00001C56 010000000000000000-
   686 00001C5F 000000000000000000-
   686 00001C68 000001000000000000-
   686 00001C71 000000000000000000-
   686 00001C7A 010000000000000000-
   686 00001C83 000000010000000000-
   686 00001C8C 000000000000000000-
   686 00001C95 000000000000000000-
   686 00001C9E 010000000100000000-
   686 00001CA7 000000000000000000-
   686 00001CB0 000000000000000000-
   686 00001CB9 000000000001000000-
   686 00001CC2 010000000000000000-
   686 00001CCB 000000000000000000-
   686 00001CD4 000000000000010000-
   686 00001CDD 000000000000000000-
   686 00001CE6 010000000000000000-
   686 00001CEF 000000000000000100-
   686 00001CF8 000000000000000000-
   686 00001D01 000000000000000000-
   686 00001D0A 010000000000000000-
   686 00001D13 000000000000000000-
   686 00001D1C 000000000000000000-
   686 00001D25 000000000000000000-
   686 00001D2E 00000000           
   688                                  font_z_font_X$next:
   689 00001D32 E900010000              jmp font_z_font_Y$next
   690 00001D37 000000000000000000-     font_z_font_Y: dd 0,0,0,0,0,0,0,0,0,1,0,0,0,1,0,0,0,0,1,0,1,0,0,0,0,0,0,1,0,0,0,0,0,0,0,1,0,0,0,0,0,0,0,1,0,0,0,0,0,0,0,1,0,0,0,0,0,0,0,0,0,0,0,0,
   690 00001D40 000000000000000000-
   690 00001D49 000000000000000000-
   690 00001D52 000000000000000000-
   690 00001D5B 010000000000000000-
   690 00001D64 000000000000000100-
   690 00001D6D 000000000000000000-
   690 00001D76 000000000000000000-
   690 00001D7F 010000000000000001-
   690 00001D88 000000000000000000-
   690 00001D91 000000000000000000-
   690 00001D9A 000000000000000000-
   690 00001DA3 010000000000000000-
   690 00001DAC 000000000000000000-
   690 00001DB5 000000000000000000-
   690 00001DBE 000000000001000000-
   690 00001DC7 000000000000000000-
   690 00001DD0 000000000000000000-
   690 00001DD9 000000000000000000-
   690 00001DE2 000100000000000000-
   690 00001DEB 000000000000000000-
   690 00001DF4 000000000000000000-
   690 00001DFD 000000000000010000-
   690 00001E06 000000000000000000-
   690 00001E0F 000000000000000000-
   690 00001E18 000000000000000000-
   690 00001E21 000000000000000000-
   690 00001E2A 000000000000000000-
   690 00001E33 00000000           
   692                                  font_z_font_Y$next:
   693 00001E37 E900010000              jmp font_z_font_Z$next
   694 00001E3C 000000000000000000-     font_z_font_Z: dd 0,0,0,0,0,0,0,0,0,1,1,1,1,1,1,0,0,0,0,0,0,1,0,0,0,0,0,0,1,0,0,0,0,0,0,1,0,0,0,0,0,0,1,0,0,0,0,0,0,1,1,1,1,1,1,0,0,0,0,0,0,0,0,0,
   694 00001E45 000000000000000000-
   694 00001E4E 000000000000000000-
   694 00001E57 000000000000000000-
   694 00001E60 010000000100000001-
   694 00001E69 000000010000000100-
   694 00001E72 000001000000000000-
   694 00001E7B 000000000000000000-
   694 00001E84 000000000000000000-
   694 00001E8D 000000010000000000-
   694 00001E96 000000000000000000-
   694 00001E9F 000000000000000000-
   694 00001EA8 000000000100000000-
   694 00001EB1 000000000000000000-
   694 00001EBA 000000000000000000-
   694 00001EC3 000000000001000000-
   694 00001ECC 000000000000000000-
   694 00001ED5 000000000000000000-
   694 00001EDE 000000000000010000-
   694 00001EE7 000000000000000000-
   694 00001EF0 000000000000000000-
   694 00001EF9 000000000000000100-
   694 00001F02 000001000000010000-
   694 00001F0B 000100000001000000-
   694 00001F14 010000000000000000-
   694 00001F1D 000000000000000000-
   694 00001F26 000000000000000000-
   694 00001F2F 000000000000000000-
   694 00001F38 00000000           
   696                                  font_z_font_Z$next:
   697 00001F3C E900010000              jmp font_z_font_question$next
   698 00001F41 000000000000000000-     font_z_font_question: dd 0,0,0,0,0,0,0,0,0,0,1,1,1,1,0,0,0,1,0,0,0,0,1,0,0,0,0,0,0,1,0,0,0,0,0,0,1,0,0,0,0,0,0,0,1,0,0,0,0,0,0,0,0,0,0,0,0,0,0,0,1,0,0,0,
   698 00001F4A 000000000000000000-
   698 00001F53 000000000000000000-
   698 00001F5C 000000000000000000-
   698 00001F65 000000000100000001-
   698 00001F6E 000000010000000100-
   698 00001F77 000000000000000000-
   698 00001F80 000000000001000000-
   698 00001F89 000000000000000000-
   698 00001F92 000000000000000100-
   698 00001F9B 000000000000000000-
   698 00001FA4 000000000000000000-
   698 00001FAD 000000000000000001-
   698 00001FB6 000000000000000000-
   698 00001FBF 000000000000000000-
   698 00001FC8 000000000000000000-
   698 00001FD1 010000000000000000-
   698 00001FDA 000000000000000000-
   698 00001FE3 000000000000000000-
   698 00001FEC 000000000001000000-
   698 00001FF5 000000000000000000-
   698 00001FFE 000000000000000000-
   698 00002007 000000000000000000-
   698 00002010 000000000000000000-
   698 00002019 000000000000000000-
   698 00002022 000000000000000000-
   698 0000202B 000000000000010000-
   698 00002034 000000000000000000-
   698 0000203D 00000000           
   700                                  font_z_font_question$next:
   701 00002041 E900010000              jmp font_z_font_space$next
   702 00002046 000000000000000000-     font_z_font_space: dd 0,0,0,0,0,0,0,0,0,0,0,0,0,0,0,0,0,0,0,0,0,0,0,0,0,0,0,0,0,0,0,0,0,0,0,0,0,0,0,0,0,0,0,0,0,0,0,0,0,0,0,0,0,0,0,0,0,0,0,0,0,0,0,0,
   702 0000204F 000000000000000000-
   702 00002058 000000000000000000-
   702 00002061 000000000000000000-
   702 0000206A 000000000000000000-
   702 00002073 000000000000000000-
   702 0000207C 000000000000000000-
   702 00002085 000000000000000000-
   702 0000208E 000000000000000000-
   702 00002097 000000000000000000-
   702 000020A0 000000000000000000-
   702 000020A9 000000000000000000-
   702 000020B2 000000000000000000-
   702 000020BB 000000000000000000-
   702 000020C4 000000000000000000-
   702 000020CD 000000000000000000-
   702 000020D6 000000000000000000-
   702 000020DF 000000000000000000-
   702 000020E8 000000000000000000-
   702 000020F1 000000000000000000-
   702 000020FA 000000000000000000-
   702 00002103 000000000000000000-
   702 0000210C 000000000000000000-
   702 00002115 000000000000000000-
   702 0000211E 000000000000000000-
   702 00002127 000000000000000000-
   702 00002130 000000000000000000-
   702 00002139 000000000000000000-
   702 00002142 00000000           
   704                                  font_z_font_space$next:
   705 00002146 E900010000              jmp font_z_font_add$next
   706 0000214B 000000000000000000-     font_z_font_add: dd 0,0,0,0,0,0,0,0,0,0,0,1,1,0,0,0,0,0,0,1,1,0,0,0,0,1,1,1,1,1,1,0,0,1,1,1,1,1,1,0,0,0,0,1,1,0,0,0,0,0,0,1,1,0,0,0,0,0,0,0,0,0,0,0,
   706 00002154 000000000000000000-
   706 0000215D 000000000000000000-
   706 00002166 000000000000000000-
   706 0000216F 000000000000000001-
   706 00002178 000000010000000000-
   706 00002181 000000000000000000-
   706 0000218A 000000000000000000-
   706 00002193 000000000100000001-
   706 0000219C 000000000000000000-
   706 000021A5 000000000000000000-
   706 000021AE 000100000001000000-
   706 000021B7 010000000100000001-
   706 000021C0 000000010000000000-
   706 000021C9 000000000000010000-
   706 000021D2 000100000001000000-
   706 000021DB 010000000100000001-
   706 000021E4 000000000000000000-
   706 000021ED 000000000000000000-
   706 000021F6 000100000001000000-
   706 000021FF 000000000000000000-
   706 00002208 000000000000000000-
   706 00002211 000000000000010000-
   706 0000221A 000100000000000000-
   706 00002223 000000000000000000-
   706 0000222C 000000000000000000-
   706 00002235 000000000000000000-
   706 0000223E 000000000000000000-
   706 00002247 00000000           
   708                                  font_z_font_add$next:
   709 0000224B E900010000              jmp font_z_font_sub$next
   710 00002250 000000000000000000-     font_z_font_sub: dd 0,0,0,0,0,0,0,0,0,0,0,0,0,0,0,0,0,0,0,0,0,0,0,0,0,1,1,1,1,1,1,0,0,1,1,1,1,1,1,0,0,0,0,0,0,0,0,0,0,0,0,0,0,0,0,0,0,0,0,0,0,0,0,0,
   710 00002259 000000000000000000-
   710 00002262 000000000000000000-
   710 0000226B 000000000000000000-
   710 00002274 000000000000000000-
   710 0000227D 000000000000000000-
   710 00002286 000000000000000000-
   710 0000228F 000000000000000000-
   710 00002298 000000000000000000-
   710 000022A1 000000000000000000-
   710 000022AA 000000000000000000-
   710 000022B3 000100000001000000-
   710 000022BC 010000000100000001-
   710 000022C5 000000010000000000-
   710 000022CE 000000000000010000-
   710 000022D7 000100000001000000-
   710 000022E0 010000000100000001-
   710 000022E9 000000000000000000-
   710 000022F2 000000000000000000-
   710 000022FB 000000000000000000-
   710 00002304 000000000000000000-
   710 0000230D 000000000000000000-
   710 00002316 000000000000000000-
   710 0000231F 000000000000000000-
   710 00002328 000000000000000000-
   710 00002331 000000000000000000-
   710 0000233A 000000000000000000-
   710 00002343 000000000000000000-
   710 0000234C 00000000           
   712                                  font_z_font_sub$next:
   713 00002350 E9A00F0000              jmp font_z_screen_buf$next
   714 00002355 200000002000000020-     font_z_screen_buf: dd 32,32,32,32,33,34,35,36,37,38,39,32,32,32,32,32,32,32,32,32,32,32,32,32,32,32,32,32,32,32,32,32,32,32,32,32,32,32,32,32,32,32,32,32,32,32,32,32,32,32,32,32,32,32,32,32,32,32,32,32,32,32,32,32,32,32,32,32,32,32,32,32,32,32,32,32,32,32,32,32,32,32,32,32,32,32,32,32,32,32,32,32,32,32,32,32,32,32,32,32,32,32,32,32,32,32,32,32,32,32,32,32,32,32,32,32,32,32,32,32,32,32,32,32,32,32,32,32,32,32,32,32,32,32,32,32,32,32,32,32,32,32,32,32,32,32,32,32,32,32,32,32,32,32,32,32,32,32,32,32,32,32,32,32,32,32,32,32,32,32,32,32,32,32,32,32,32,32,32,32,32,32,32,32,32,32,32,32,32,32,32,32,32,32,32,32,32,32,32,32,32,32,32,32,32,32,32,32,32,32,32,32,32,32,32,32,32,32,32,32,32,32,32,32,32,32,32,32,32,32,32,32,32,32,32,32,32,32,32,32,32,32,32,32,32,32,32,32,32,32,32,32,32,32,32,32,32,32,32,32,32,32,32,32,32,32,32,32,32,32,32,32,32,32,32,32,32,32,32,32,32,32,32,32,32,32,32,32,32,32,32,32,32,32,32,32,32,32,32,32,32,32,32,32,32,32,32,32,32,32,32,32,32,32,32,32,32,32,32,32,32,32,32,32,32,32,32,32,32,32,32,32,32...
   714 0000235E 000000200000002100-
   714 00002367 000022000000230000-
   714 00002370 002400000025000000-
   714 00002379 260000002700000020-
   714 00002382 000000200000002000-
   714 0000238B 000020000000200000-
   714 00002394 002000000020000000-
   714 0000239D 200000002000000020-
   714 000023A6 000000200000002000-
   714 000023AF 000020000000200000-
   714 000023B8 002000000020000000-
   714 000023C1 200000002000000020-
   714 000023CA 000000200000002000-
   714 000023D3 000020000000200000-
   714 000023DC 002000000020000000-
   714 000023E5 200000002000000020-
   714 000023EE 000000200000002000-
   714 000023F7 000020000000200000-
   714 00002400 002000000020000000-
   714 00002409 200000002000000020-
   714 00002412 000000200000002000-
   714 0000241B 000020000000200000-
   714 00002424 002000000020000000-
   714 0000242D 200000002000000020-
   714 00002436 000000200000002000-
   714 0000243F 000020000000200000-
   714 00002448 002000000020000000-
   714 00002451 200000002000000020-
   714 0000245A 000000200000002000-
   714 00002463 000020000000200000-
   714 0000246C 002000000020000000-
   714 00002475 200000002000000020-
   714 0000247E 000000200000002000-
   714 00002487 000020000000200000-
   714 00002490 002000000020000000-
   714 00002499 200000002000000020-
   714 000024A2 000000200000002000-
   714 000024AB 000020000000200000-
   714 000024B4 002000000020000000-
   714 000024BD 200000002000000020-
   714 000024C6 000000200000002000-
   714 000024CF 000020000000200000-
   714 000024D8 002000000020000000-
   714 000024E1 200000002000000020-
   714 000024EA 000000200000002000-
   714 000024F3 000020000000200000-
   714 000024FC 002000000020000000-
   714 00002505 200000002000000020-
   714 0000250E 000000200000002000-
   714 00002517 000020000000200000-
   714 00002520 002000000020000000-
   714 00002529 200000002000000020-
   714 00002532 000000200000002000-
   714 0000253B 000020000000200000-
   714 00002544 002000000020000000-
   714 0000254D 200000002000000020-
   714 00002556 000000200000002000-
   714 0000255F 000020000000200000-
   714 00002568 002000000020000000-
   714 00002571 200000002000000020-
   714 0000257A 000000200000002000-
   714 00002583 000020000000200000-
   714 0000258C 002000000020000000-
   714 00002595 200000002000000020-
   714 0000259E 000000200000002000-
   714 000025A7 000020000000200000-
   714 000025B0 002000000020000000-
   714 000025B9 200000002000000020-
   714 000025C2 000000200000002000-
   714 000025CB 000020000000200000-
   714 000025D4 002000000020000000-
   714 000025DD 200000002000000020-
   714 000025E6 000000200000002000-
   714 000025EF 000020000000200000-
   714 000025F8 002000000020000000-
   714 00002601 200000002000000020-
   714 0000260A 000000200000002000-
   714 00002613 000020000000200000-
   714 0000261C 002000000020000000-
   714 00002625 200000002000000020-
   714 0000262E 000000200000002000-
   714 00002637 000020000000200000-
   714 00002640 002000000020000000-
   714 00002649 200000002000000020-
   714 00002652 000000200000002000-
   714 0000265B 000020000000200000-
   714 00002664 002000000020000000-
   714 0000266D 200000002000000020-
   714 00002676 000000200000002000-
   714 0000267F 000020000000200000-
   714 00002688 002000000020000000-
   714 00002691 200000002000000020-
   714 0000269A 000000200000002000-
   714 000026A3 000020000000200000-
   714 000026AC 002000000020000000-
   714 000026B5 200000002000000020-
   714 000026BE 000000200000002000-
   714 000026C7 000020000000200000-
   714 000026D0 002000000020000000-
   714 000026D9 200000002000000020-
   714 000026E2 000000200000002000-
   714 000026EB 000020000000200000-
   714 000026F4 002000000020000000-
   714 000026FD 200000002000000020-
   714 00002706 000000200000002000-
   714 0000270F 000020000000200000-
   714 00002718 002000000020000000-
   714 00002721 200000002000000020-
   714 0000272A 000000200000002000-
   714 00002733 000020000000200000-
   714 0000273C 002000000020000000-
   714 00002745 200000002000000020-
   714 0000274E 000000200000002000-
   714 00002757 000020000000200000-
   714 00002760 002000000020000000-
   714 00002769 200000002000000020-
   714 00002772 000000200000002000-
   714 0000277B 000020000000200000-
   714 00002784 002000000020000000-
   714 0000278D 200000002000000020-
   714 00002796 000000200000002000-
   714 0000279F 000020000000200000-
   714 000027A8 002000000020000000-
   714 000027B1 200000002000000020-
   714 000027BA 000000200000002000-
   714 000027C3 000020000000200000-
   714 000027CC 002000000020000000-
   714 000027D5 200000002000000020-
   714 000027DE 000000200000002000-
   714 000027E7 000020000000200000-
   714 000027F0 002000000020000000-
   714 000027F9 200000002000000020-
   714 00002802 000000200000002000-
   714 0000280B 000020000000200000-
   714 00002814 002000000020000000-
   714 0000281D 200000002000000020-
   714 00002826 000000200000002000-
   714 0000282F 000020000000200000-
   714 00002838 002000000020000000-
   714 00002841 200000002000000020-
   714 0000284A 000000200000002000-
   714 00002853 000020000000200000-
   714 0000285C 002000000020000000-
   714 00002865 200000002000000020-
   714 0000286E 000000200000002000-
   714 00002877 000020000000200000-
   714 00002880 002000000020000000-
   714 00002889 200000002000000020-
   714 00002892 000000200000002000-
   714 0000289B 000020000000200000-
   714 000028A4 002000000020000000-
   714 000028AD 200000002000000020-
   714 000028B6 000000200000002000-
   714 000028BF 000020000000200000-
   714 000028C8 002000000020000000-
   714 000028D1 200000002000000020-
   714 000028DA 000000200000002000-
   714 000028E3 000020000000200000-
   714 000028EC 002000000020000000-
   714 000028F5 200000002000000020-
   714 000028FE 000000200000002000-
   714 00002907 000020000000200000-
   714 00002910 002000000020000000-
   714 00002919 200000002000000020-
   714 00002922 000000200000002000-
   714 0000292B 000020000000200000-
   714 00002934 002000000020000000-
   714 0000293D 200000002000000020-
   714 00002946 000000200000002000-
   714 0000294F 000020000000200000-
   714 00002958 002000000020000000-
   714 00002961 200000002000000020-
   714 0000296A 000000200000002000-
   714 00002973 000020000000200000-
   714 0000297C 002000000020000000-
   714 00002985 200000002000000020-
   714 0000298E 000000200000002000-
   714 00002997 000020000000200000-
   714 000029A0 002000000020000000-
   714 000029A9 200000002000000020-
   714 000029B2 000000200000002000-
   714 000029BB 000020000000200000-
   714 000029C4 002000000020000000-
   714 000029CD 200000002000000020-
   714 000029D6 000000200000002000-
   714 000029DF 000020000000200000-
   714 000029E8 002000000020000000-
   714 000029F1 200000002000000020-
   714 000029FA 000000200000002000-
   714 00002A03 000020000000200000-
   714 00002A0C 002000000020000000-
   714 00002A15 200000002000000020-
   714 00002A1E 000000200000002000-
   714 00002A27 000020000000200000-
   714 00002A30 002000000020000000-
   714 00002A39 200000002000000020-
   714 00002A42 000000200000002000-
   714 00002A4B 000020000000200000-
   714 00002A54 002000000020000000-
   714 00002A5D 200000002000000020-
   714 00002A66 000000200000002000-
   714 00002A6F 000020000000200000-
   714 00002A78 002000000020000000-
   714 00002A81 200000002000000020-
   714 00002A8A 000000200000002000-
   714 00002A93 000020000000200000-
   714 00002A9C 002000000020000000-
   714 00002AA5 200000002000000020-
   714 00002AAE 000000200000002000-
   714 00002AB7 000020000000200000-
   714 00002AC0 002000000020000000-
   714 00002AC9 200000002000000020-
   714 00002AD2 000000200000002000-
   714 00002ADB 000020000000200000-
   714 00002AE4 002000000020000000-
   714 00002AED 200000002000000020-
   714 00002AF6 000000200000002000-
   714 00002AFF 000020000000200000-
   714 00002B08 002000000020000000-
   714 00002B11 200000002000000020-
   714 00002B1A 000000200000002000-
   714 00002B23 000020000000200000-
   714 00002B2C 002000000020000000-
   714 00002B35 200000002000000020-
   714 00002B3E 000000200000002000-
   714 00002B47 000020000000200000-
   714 00002B50 002000000020000000-
   714 00002B59 200000002000000020-
   714 00002B62 000000200000002000-
   714 00002B6B 000020000000200000-
   714 00002B74 002000000020000000-
   714 00002B7D 200000002000000020-
   714 00002B86 000000200000002000-
   714 00002B8F 000020000000200000-
   714 00002B98 002000000020000000-
   714 00002BA1 200000002000000020-
   714 00002BAA 000000200000002000-
   714 00002BB3 000020000000200000-
   714 00002BBC 002000000020000000-
   714 00002BC5 200000002000000020-
   714 00002BCE 000000200000002000-
   714 00002BD7 000020000000200000-
   714 00002BE0 002000000020000000-
   714 00002BE9 200000002000000020-
   714 00002BF2 000000200000002000-
   714 00002BFB 000020000000200000-
   714 00002C04 002000000020000000-
   714 00002C0D 200000002000000020-
   714 00002C16 000000200000002000-
   714 00002C1F 000020000000200000-
   714 00002C28 002000000020000000-
   714 00002C31 200000002000000020-
   714 00002C3A 000000200000002000-
   714 00002C43 000020000000200000-
   714 00002C4C 002000000020000000-
   714 00002C55 200000002000000020-
   714 00002C5E 000000200000002000-
   714 00002C67 000020000000200000-
   714 00002C70 002000000020000000-
   714 00002C79 200000002000000020-
   714 00002C82 000000200000002000-
   714 00002C8B 000020000000200000-
   714 00002C94 002000000020000000-
   714 00002C9D 200000002000000020-
   714 00002CA6 000000200000002000-
   714 00002CAF 000020000000200000-
   714 00002CB8 002000000020000000-
   714 00002CC1 200000002000000020-
   714 00002CCA 000000200000002000-
   714 00002CD3 000020000000200000-
   714 00002CDC 002000000020000000-
   714 00002CE5 200000002000000020-
   714 00002CEE 000000200000002000-
   714 00002CF7 000020000000200000-
   714 00002D00 002000000020000000-
   714 00002D09 200000002000000020-
   714 00002D12 000000200000002000-
   714 00002D1B 000020000000200000-
   714 00002D24 002000000020000000-
   714 00002D2D 200000002000000020-
   714 00002D36 000000200000002000-
   714 00002D3F 000020000000200000-
   714 00002D48 002000000020000000-
   714 00002D51 200000002000000020-
   714 00002D5A 000000200000002000-
   714 00002D63 000020000000200000-
   714 00002D6C 002000000020000000-
   714 00002D75 200000002000000020-
   714 00002D7E 000000200000002000-
   714 00002D87 000020000000200000-
   714 00002D90 002000000020000000-
   714 00002D99 200000002000000020-
   714 00002DA2 000000200000002000-
   714 00002DAB 000020000000200000-
   714 00002DB4 002000000020000000-
   714 00002DBD 200000002000000020-
   714 00002DC6 000000200000002000-
   714 00002DCF 000020000000200000-
   714 00002DD8 002000000020000000-
   714 00002DE1 200000002000000020-
   714 00002DEA 000000200000002000-
   714 00002DF3 000020000000200000-
   714 00002DFC 002000000020000000-
   714 00002E05 200000002000000020-
   714 00002E0E 000000200000002000-
   714 00002E17 000020000000200000-
   714 00002E20 002000000020000000-
   714 00002E29 200000002000000020-
   714 00002E32 000000200000002000-
   714 00002E3B 000020000000200000-
   714 00002E44 002000000020000000-
   714 00002E4D 200000002000000020-
   714 00002E56 000000200000002000-
   714 00002E5F 000020000000200000-
   714 00002E68 002000000020000000-
   714 00002E71 200000002000000020-
   714 00002E7A 000000200000002000-
   714 00002E83 000020000000200000-
   714 00002E8C 002000000020000000-
   714 00002E95 200000002000000020-
   714 00002E9E 000000200000002000-
   714 00002EA7 000020000000200000-
   714 00002EB0 002000000020000000-
   714 00002EB9 200000002000000020-
   714 00002EC2 000000200000002000-
   714 00002ECB 000020000000200000-
   714 00002ED4 002000000020000000-
   714 00002EDD 200000002000000020-
   714 00002EE6 000000200000002000-
   714 00002EEF 000020000000200000-
   714 00002EF8 002000000020000000-
   714 00002F01 200000002000000020-
   714 00002F0A 000000200000002000-
   714 00002F13 000020000000200000-
   714 00002F1C 002000000020000000-
   714 00002F25 200000002000000020-
   714 00002F2E 000000200000002000-
   714 00002F37 000020000000200000-
   714 00002F40 002000000020000000-
   714 00002F49 200000002000000020-
   714 00002F52 000000200000002000-
   714 00002F5B 000020000000200000-
   714 00002F64 002000000020000000-
   714 00002F6D 200000002000000020-
   714 00002F76 000000200000002000-
   714 00002F7F 000020000000200000-
   714 00002F88 002000000020000000-
   714 00002F91 200000002000000020-
   714 00002F9A 000000200000002000-
   714 00002FA3 000020000000200000-
   714 00002FAC 002000000020000000-
   714 00002FB5 200000002000000020-
   714 00002FBE 000000200000002000-
   714 00002FC7 000020000000200000-
   714 00002FD0 002000000020000000-
   714 00002FD9 200000002000000020-
   714 00002FE2 000000200000002000-
   714 00002FEB 000020000000200000-
   714 00002FF4 002000000020000000-
   714 00002FFD 200000002000000020-
   714 00003006 000000200000002000-
   714 0000300F 000020000000200000-
   714 00003018 002000000020000000-
   714 00003021 200000002000000020-
   714 0000302A 000000200000002000-
   714 00003033 000020000000200000-
   714 0000303C 002000000020000000-
   714 00003045 200000002000000020-
   714 0000304E 000000200000002000-
   714 00003057 000020000000200000-
   714 00003060 002000000020000000-
   714 00003069 200000002000000020-
   714 00003072 000000200000002000-
   714 0000307B 000020000000200000-
   714 00003084 002000000020000000-
   714 0000308D 200000002000000020-
   714 00003096 000000200000002000-
   714 0000309F 000020000000200000-
   714 000030A8 002000000020000000-
   714 000030B1 200000002000000020-
   714 000030BA 000000200000002000-
   714 000030C3 000020000000200000-
   714 000030CC 002000000020000000-
   714 000030D5 200000002000000020-
   714 000030DE 000000200000002000-
   714 000030E7 000020000000200000-
   714 000030F0 002000000020000000-
   714 000030F9 200000002000000020-
   714 00003102 000000200000002000-
   714 0000310B 000020000000200000-
   714 00003114 002000000020000000-
   714 0000311D 200000002000000020-
   714 00003126 000000200000002000-
   714 0000312F 000020000000200000-
   714 00003138 002000000020000000-
   714 00003141 200000002000000020-
   714 0000314A 000000200000002000-
   714 00003153 000020000000200000-
   714 0000315C 002000000020000000-
   714 00003165 200000002000000020-
   714 0000316E 000000200000002000-
   714 00003177 000020000000200000-
   714 00003180 002000000020000000-
   714 00003189 200000002000000020-
   714 00003192 000000200000002000-
   714 0000319B 000020000000200000-
   714 000031A4 002000000020000000-
   714 000031AD 200000002000000020-
   714 000031B6 000000200000002000-
   714 000031BF 000020000000200000-
   714 000031C8 002000000020000000-
   714 000031D1 200000002000000020-
   714 000031DA 000000200000002000-
   714 000031E3 000020000000200000-
   714 000031EC 002000000020000000-
   714 000031F5 200000002000000020-
   714 000031FE 000000200000002000-
   714 00003207 000020000000200000-
   714 00003210 002000000020000000-
   714 00003219 200000002000000020-
   714 00003222 000000200000002000-
   714 0000322B 000020000000200000-
   714 00003234 002000000020000000-
   714 0000323D 200000002000000020-
   714 00003246 000000200000002000-
   714 0000324F 000020000000200000-
   714 00003258 002000000020000000-
   714 00003261 200000002000000020-
   714 0000326A 000000200000002000-
   714 00003273 000020000000200000-
   714 0000327C 002000000020000000-
   714 00003285 200000002000000020-
   714 0000328E 000000200000002000-
   714 00003297 000020000000200000-
   714 000032A0 002000000020000000-
   714 000032A9 200000002000000020-
   714 000032B2 000000200000002000-
   714 000032BB 000020000000200000-
   714 000032C4 002000000020000000-
   714 000032CD 200000002000000020-
   714 000032D6 000000200000002000-
   714 000032DF 000020000000200000-
   714 000032E8 002000000020000000-
   714 000032F1 20000000           
   716                                  font_z_screen_buf$next:
   717                                  
   718                                  ;function
   719 000032F5 EB41                    jmp font_z_getAddrByAscii$next
   720                                  font_z_getAddrByAscii:
   721                                  ;param
   722 000032F7 EB04                    jmp font_z_getAddrByAscii_ascii$next
   723 000032F9 00000000                font_z_getAddrByAscii_ascii: dd 0
   724                                  font_z_getAddrByAscii_ascii$next:
   725 000032FD 5D                      pop ebp
   726 000032FE 58                      pop eax
   727 000032FF A3[F9320000]            mov [font_z_getAddrByAscii_ascii], eax
   728 00003304 55                      push ebp
   729                                  ; if start
   730                                  font_z_getAddrByAscii_if$1_start:
   731 00003305 A1[F9320000]            mov eax, [font_z_getAddrByAscii_ascii]
   732 0000330A 50                      push eax
   733 0000330B B841000000              mov eax, 65
   734 00003310 50                      push eax
   735 00003311 5B                      pop ebx
   736 00003312 58                      pop eax
   737 00003313 39D8                    cmp eax, ebx
   738 00003315 7407                    je font_z_getAddrByAscii_if$1_equal@true$1
   739 00003317 B800000000              mov eax, 0
   740 0000331C EB05                    jmp font_z_getAddrByAscii_if$1_equal@false$1
   741                                  font_z_getAddrByAscii_if$1_equal@true$1:
   742 0000331E B801000000              mov eax, 1
   743                                  font_z_getAddrByAscii_if$1_equal@false$1:
   744 00003323 50                      push eax
   745 00003324 58                      pop eax
   746 00003325 83F800                  cmp eax, 0
   747 00003328 740D                    je font_z_getAddrByAscii_if$1_else
   748                                  font_z_getAddrByAscii_if$1_then:
   749 0000332A B8[BF040000]            mov eax, font_z_A
   750 0000332F 50                      push eax
   751 00003330 58                      pop eax
   752 00003331 5D                      pop ebp
   753 00003332 50                      push eax
   754 00003333 55                      push ebp
   755 00003334 C3                      ret
   756 00003335 EB00                    jmp font_z_getAddrByAscii_if$1_end
   757                                  font_z_getAddrByAscii_if$1_else:
   758                                  font_z_getAddrByAscii_if$1_end:
   759                                  ;if end
   760 00003337 C3                      ret
   761                                  font_z_getAddrByAscii$next:
   762                                  
   763                                  ;function
   764 00003338 E996010000              jmp test_z_draw$next
   765                                  test_z_draw:
   766                                  ;param
   767 0000333D EB04                    jmp test_z_draw_addrVram$next
   768 0000333F 00000000                test_z_draw_addrVram: dd 0
   769                                  test_z_draw_addrVram$next:
   770 00003343 5D                      pop ebp
   771 00003344 58                      pop eax
   772 00003345 A3[3F330000]            mov [test_z_draw_addrVram], eax
   773 0000334A 55                      push ebp
   774 0000334B B800000000              mov eax, 0
   775 00003350 50                      push eax
   776 00003351 EB04                    jmp test_z_draw_i$next
   777 00003353 00000000                test_z_draw_i: dd 0
   778                                  test_z_draw_i$next:
   779 00003357 58                      pop eax
   780 00003358 A3[53330000]            mov [test_z_draw_i], eax
   781                                  ; while start
   782                                  test_z_draw_while$1_start:
   783 0000335D A1[53330000]            mov eax, [test_z_draw_i]
   784 00003362 50                      push eax
   785 00003363 B82C010000              mov eax, 300
   786 00003368 50                      push eax
   787 00003369 5B                      pop ebx
   788 0000336A 58                      pop eax
   789 0000336B 39D8                    cmp eax, ebx
   790 0000336D 7207                    jb test_z_draw_while$1_less@true$1
   791 0000336F B800000000              mov eax, 0
   792 00003374 EB05                    jmp test_z_draw_while$1_less@false$1
   793                                  test_z_draw_while$1_less@true$1:
   794 00003376 B801000000              mov eax, 1
   795                                  test_z_draw_while$1_less@false$1:
   796 0000337B 50                      push eax
   797 0000337C 58                      pop eax
   798 0000337D 83F800                  cmp eax, 0
   799 00003380 743C                    je test_z_draw_while$1_end
   800 00003382 A1[53330000]            mov eax, [test_z_draw_i]
   801 00003387 50                      push eax
   802 00003388 A1[53330000]            mov eax, [test_z_draw_i]
   803 0000338D 50                      push eax
   804 0000338E A1[53330000]            mov eax, [test_z_draw_i]
   805 00003393 50                      push eax
   806 00003394 B840010000              mov eax, 320
   807 00003399 50                      push eax
   808 0000339A A1[3F330000]            mov eax, [test_z_draw_addrVram]
   809 0000339F 50                      push eax
   810 000033A0 E854CDFFFF              call draw_z_pixel
   811 000033A5 A1[53330000]            mov eax, [test_z_draw_i]
   812 000033AA 50                      push eax
   813 000033AB B801000000              mov eax, 1
   814 000033B0 50                      push eax
   815 000033B1 58                      pop eax
   816 000033B2 5B                      pop ebx
   817 000033B3 01D8                    add eax, ebx
   818 000033B5 50                      push eax
   819 000033B6 58                      pop eax
   820 000033B7 A3[53330000]            mov [test_z_draw_i], eax
   821 000033BC EB9F                    jmp test_z_draw_while$1_start
   822                                  test_z_draw_while$1_end:
   823                                  ;while end
   824 000033BE B800000000              mov eax, 0
   825 000033C3 50                      push eax
   826 000033C4 EB04                    jmp test_z_draw_x$next
   827 000033C6 00000000                test_z_draw_x: dd 0
   828                                  test_z_draw_x$next:
   829 000033CA 58                      pop eax
   830 000033CB A3[C6330000]            mov [test_z_draw_x], eax
   831 000033D0 B800000000              mov eax, 0
   832 000033D5 50                      push eax
   833 000033D6 EB04                    jmp test_z_draw_y$next
   834 000033D8 00000000                test_z_draw_y: dd 0
   835                                  test_z_draw_y$next:
   836 000033DC 58                      pop eax
   837 000033DD A3[D8330000]            mov [test_z_draw_y], eax
   838                                  ; while start
   839                                  test_z_draw_while$2_start:
   840 000033E2 A1[D8330000]            mov eax, [test_z_draw_y]
   841 000033E7 50                      push eax
   842 000033E8 B8C8000000              mov eax, 200
   843 000033ED 50                      push eax
   844 000033EE 5B                      pop ebx
   845 000033EF 58                      pop eax
   846 000033F0 39D8                    cmp eax, ebx
   847 000033F2 7607                    jbe test_z_draw_while$2_lessequal@true$2
   848 000033F4 B800000000              mov eax, 0
   849 000033F9 EB05                    jmp test_z_draw_while$2_lessequal@false$2
   850                                  test_z_draw_while$2_lessequal@true$2:
   851 000033FB B801000000              mov eax, 1
   852                                  test_z_draw_while$2_lessequal@false$2:
   853 00003400 50                      push eax
   854 00003401 58                      pop eax
   855 00003402 83F800                  cmp eax, 0
   856 00003405 0F8489000000            je test_z_draw_while$2_end
   857 0000340B B800000000              mov eax, 0
   858 00003410 50                      push eax
   859 00003411 58                      pop eax
   860 00003412 A3[C6330000]            mov [test_z_draw_x], eax
   861                                  ; while start
   862                                  test_z_draw_while$2_while$1_start:
   863 00003417 A1[C6330000]            mov eax, [test_z_draw_x]
   864 0000341C 50                      push eax
   865 0000341D B840010000              mov eax, 320
   866 00003422 50                      push eax
   867 00003423 5B                      pop ebx
   868 00003424 58                      pop eax
   869 00003425 39D8                    cmp eax, ebx
   870 00003427 7607                    jbe test_z_draw_while$2_while$1_lessequal@true$3
   871 00003429 B800000000              mov eax, 0
   872 0000342E EB05                    jmp test_z_draw_while$2_while$1_lessequal@false$3
   873                                  test_z_draw_while$2_while$1_lessequal@true$3:
   874 00003430 B801000000              mov eax, 1
   875                                  test_z_draw_while$2_while$1_lessequal@false$3:
   876 00003435 50                      push eax
   877 00003436 58                      pop eax
   878 00003437 83F800                  cmp eax, 0
   879 0000343A 743C                    je test_z_draw_while$2_while$1_end
   880 0000343C A1[C6330000]            mov eax, [test_z_draw_x]
   881 00003441 50                      push eax
   882 00003442 A1[D8330000]            mov eax, [test_z_draw_y]
   883 00003447 50                      push eax
   884 00003448 A1[C6330000]            mov eax, [test_z_draw_x]
   885 0000344D 50                      push eax
   886 0000344E B840010000              mov eax, 320
   887 00003453 50                      push eax
   888 00003454 A1[3F330000]            mov eax, [test_z_draw_addrVram]
   889 00003459 50                      push eax
   890 0000345A E89ACCFFFF              call draw_z_pixel
   891 0000345F A1[C6330000]            mov eax, [test_z_draw_x]
   892 00003464 50                      push eax
   893 00003465 B801000000              mov eax, 1
   894 0000346A 50                      push eax
   895 0000346B 58                      pop eax
   896 0000346C 5B                      pop ebx
   897 0000346D 01D8                    add eax, ebx
   898 0000346F 50                      push eax
   899 00003470 58                      pop eax
   900 00003471 A3[C6330000]            mov [test_z_draw_x], eax
   901 00003476 EB9F                    jmp test_z_draw_while$2_while$1_start
   902                                  test_z_draw_while$2_while$1_end:
   903                                  ;while end
   904 00003478 A1[D8330000]            mov eax, [test_z_draw_y]
   905 0000347D 50                      push eax
   906 0000347E B801000000              mov eax, 1
   907 00003483 50                      push eax
   908 00003484 58                      pop eax
   909 00003485 5B                      pop ebx
   910 00003486 01D8                    add eax, ebx
   911 00003488 50                      push eax
   912 00003489 58                      pop eax
   913 0000348A A3[D8330000]            mov [test_z_draw_y], eax
   914 0000348F E94EFFFFFF              jmp test_z_draw_while$2_start
   915                                  test_z_draw_while$2_end:
   916                                  ;while end
   917 00003494 A1[3F330000]            mov eax, [test_z_draw_addrVram]
   918 00003499 50                      push eax
   919 0000349A E8F2CDFFFF              call draw_z_flush
   920 0000349F EB14                    jmp test_z_draw_tstr$next
   921 000034A1 410000004200000043-     test_z_draw_tstr: dd 65, 66, 67, 68, 0
   921 000034AA 000000440000000000-
   921 000034B3 0000               
   923                                  test_z_draw_tstr$next:
   924 000034B5 B800000000              mov eax, 0
   925 000034BA 50                      push eax
   926 000034BB B800000000              mov eax, 0
   927 000034C0 50                      push eax
   928 000034C1 B8[A1340000]            mov eax, test_z_draw_tstr
   929 000034C6 50                      push eax
   930 000034C7 A1[3F330000]            mov eax, [test_z_draw_addrVram]
   931 000034CC 50                      push eax
   932 000034CD E832CFFFFF              call draw_z_string
   933 000034D2 C3                      ret
   934                                  test_z_draw$next:
   935 000034D3 EB18                    jmp main
   936                                  
   937                                  ; 
   938                                  ; kernel.z\setMem.1byte(val:dword, addr:dword)
   939                                  kernel_z_setMem_1byte:
   940 000034D5 5D                        pop ebp
   941 000034D6 5B                        pop ebx
   942 000034D7 58                        pop eax
   943 000034D8 55                        push ebp
   944 000034D9 8803                      mov [ebx], al
   945 000034DB C3                      ret
   946                                  
   947                                  ; kernel.z\setMem.2byte(val:dword, addr:dword)
   948                                  kernel_z_setMem_2byte:
   949 000034DC 5D                        pop ebp
   950 000034DD 5B                        pop ebx
   951 000034DE 58                        pop eax
   952 000034DF 55                        push ebp
   953 000034E0 668903                    mov [ebx], ax
   954 000034E3 C3                      ret
   955                                  
   956                                  ; kernel.z\setMem.4byte(val:dword, addr:dword)
   957                                  kernel_z_setMem_4byte:
   958 000034E4 5D                        pop ebp
   959 000034E5 5B                        pop ebx
   960 000034E6 58                        pop eax
   961 000034E7 55                        push ebp
   962 000034E8 8903                      mov [ebx], eax
   963 000034EA C3                      ret
   964                                  
   965                                  ; kernel.z\halt()
   966                                  kernel_z_halt:
   967 000034EB F4                        hlt
   968 000034EC C3                      ret
   969                                  
   970                                  main:
   971 000034ED E88ECBFFFF                call main_z_run_once
   972                                    .loop:
   973 000034F2 E899CBFFFF                  call main_z_run_loop
   974 000034F7 EBF9                      jmp .loop
   975                                  
